
hx_kernel：     文件格式 elf32-i386


Disassembly of section .init.text:

00100000 <start-0xc>:
  100000:	02 b0 ad 1b 03 00    	add    dh,BYTE PTR [eax+0x31bad]
  100006:	00 00                	add    BYTE PTR [eax],al
  100008:	fb                   	sti    
  100009:	4f                   	dec    edi
  10000a:	52                   	push   edx
  10000b:	e4 fa                	in     al,0xfa

0010000c <start>:
  10000c:	fa                   	cli    
  10000d:	89 1d 00 14 10 00    	mov    DWORD PTR ds:0x101400,ebx
  100013:	bc ff 03 00 00       	mov    esp,0x3ff
  100018:	83 e4 f0             	and    esp,0xfffffff0
  10001b:	bd 00 00 00 00       	mov    ebp,0x0
  100020:	e8 00 00 00 00       	call   100025 <kern_entry>

00100025 <kern_entry>:
  100025:	55                   	push   ebp
  100026:	89 e5                	mov    ebp,esp
  100028:	53                   	push   ebx
  100029:	83 ec 14             	sub    esp,0x14
  10002c:	a1 04 14 10 00       	mov    eax,ds:0x101404
  100031:	8b 15 08 14 10 00    	mov    edx,DWORD PTR ds:0x101408
  100037:	83 ca 03             	or     edx,0x3
  10003a:	89 10                	mov    DWORD PTR [eax],edx
  10003c:	a1 04 14 10 00       	mov    eax,ds:0x101404
  100041:	05 00 0c 00 00       	add    eax,0xc00
  100046:	8b 15 0c 14 10 00    	mov    edx,DWORD PTR ds:0x10140c
  10004c:	83 ca 03             	or     edx,0x3
  10004f:	89 10                	mov    DWORD PTR [eax],edx
  100051:	c7 45 f4 00 00 00 00 	mov    DWORD PTR [ebp-0xc],0x0
  100058:	eb 1c                	jmp    100076 <kern_entry+0x51>
  10005a:	a1 08 14 10 00       	mov    eax,ds:0x101408
  10005f:	8b 55 f4             	mov    edx,DWORD PTR [ebp-0xc]
  100062:	c1 e2 02             	shl    edx,0x2
  100065:	01 c2                	add    edx,eax
  100067:	8b 45 f4             	mov    eax,DWORD PTR [ebp-0xc]
  10006a:	c1 e0 0c             	shl    eax,0xc
  10006d:	83 c8 03             	or     eax,0x3
  100070:	89 02                	mov    DWORD PTR [edx],eax
  100072:	83 45 f4 01          	add    DWORD PTR [ebp-0xc],0x1
  100076:	81 7d f4 ff 03 00 00 	cmp    DWORD PTR [ebp-0xc],0x3ff
  10007d:	7e db                	jle    10005a <kern_entry+0x35>
  10007f:	c7 45 f4 00 00 00 00 	mov    DWORD PTR [ebp-0xc],0x0
  100086:	eb 1c                	jmp    1000a4 <kern_entry+0x7f>
  100088:	a1 0c 14 10 00       	mov    eax,ds:0x10140c
  10008d:	8b 55 f4             	mov    edx,DWORD PTR [ebp-0xc]
  100090:	c1 e2 02             	shl    edx,0x2
  100093:	01 c2                	add    edx,eax
  100095:	8b 45 f4             	mov    eax,DWORD PTR [ebp-0xc]
  100098:	c1 e0 0c             	shl    eax,0xc
  10009b:	83 c8 03             	or     eax,0x3
  10009e:	89 02                	mov    DWORD PTR [edx],eax
  1000a0:	83 45 f4 01          	add    DWORD PTR [ebp-0xc],0x1
  1000a4:	81 7d f4 ff 03 00 00 	cmp    DWORD PTR [ebp-0xc],0x3ff
  1000ab:	7e db                	jle    100088 <kern_entry+0x63>
  1000ad:	a1 04 14 10 00       	mov    eax,ds:0x101404
  1000b2:	0f 22 d8             	mov    cr3,eax
  1000b5:	0f 20 c3             	mov    ebx,cr0
  1000b8:	89 5d f0             	mov    DWORD PTR [ebp-0x10],ebx
  1000bb:	81 4d f0 00 00 00 80 	or     DWORD PTR [ebp-0x10],0x80000000
  1000c2:	8b 45 f0             	mov    eax,DWORD PTR [ebp-0x10]
  1000c5:	0f 22 c0             	mov    cr0,eax
  1000c8:	b8 10 80 20 c0       	mov    eax,0xc0208010
  1000cd:	05 00 20 00 00       	add    eax,0x2000
  1000d2:	a3 10 a0 20 c0       	mov    ds:0xc020a010,eax
  1000d7:	a1 10 a0 20 c0       	mov    eax,ds:0xc020a010
  1000dc:	89 c4                	mov    esp,eax
  1000de:	31 ed                	xor    ebp,ebp
  1000e0:	a1 00 14 10 00       	mov    eax,ds:0x101400
  1000e5:	a3 04 80 20 c0       	mov    ds:0xc0208004,eax
  1000ea:	e8 80 2e 00 c0       	call   c0102f6f <kern_init>
  1000ef:	83 c4 14             	add    esp,0x14
  1000f2:	5b                   	pop    ebx
  1000f3:	5d                   	pop    ebp
  1000f4:	c3                   	ret    
  1000f5:	66 90                	xchg   ax,ax
  1000f7:	66 90                	xchg   ax,ax
  1000f9:	66 90                	xchg   ax,ax
  1000fb:	66 90                	xchg   ax,ax
  1000fd:	66 90                	xchg   ax,ax
  1000ff:	66 90                	xchg   ax,ax
  100101:	66 90                	xchg   ax,ax
  100103:	66 90                	xchg   ax,ax
  100105:	66 90                	xchg   ax,ax
  100107:	66 90                	xchg   ax,ax
  100109:	66 90                	xchg   ax,ax
  10010b:	66 90                	xchg   ax,ax
  10010d:	66 90                	xchg   ax,ax
  10010f:	66 90                	xchg   ax,ax
  100111:	66 90                	xchg   ax,ax
  100113:	66 90                	xchg   ax,ax
  100115:	66 90                	xchg   ax,ax
  100117:	66 90                	xchg   ax,ax
  100119:	66 90                	xchg   ax,ax
  10011b:	66 90                	xchg   ax,ax
  10011d:	66 90                	xchg   ax,ax
  10011f:	66 90                	xchg   ax,ax
  100121:	66 90                	xchg   ax,ax
  100123:	66 90                	xchg   ax,ax
  100125:	66 90                	xchg   ax,ax
  100127:	66 90                	xchg   ax,ax
  100129:	66 90                	xchg   ax,ax
  10012b:	66 90                	xchg   ax,ax
  10012d:	66 90                	xchg   ax,ax
  10012f:	66 90                	xchg   ax,ax
  100131:	66 90                	xchg   ax,ax
  100133:	66 90                	xchg   ax,ax
  100135:	66 90                	xchg   ax,ax
  100137:	66 90                	xchg   ax,ax
  100139:	66 90                	xchg   ax,ax
  10013b:	66 90                	xchg   ax,ax
  10013d:	66 90                	xchg   ax,ax
  10013f:	66 90                	xchg   ax,ax
  100141:	66 90                	xchg   ax,ax
  100143:	66 90                	xchg   ax,ax
  100145:	66 90                	xchg   ax,ax
  100147:	66 90                	xchg   ax,ax
  100149:	66 90                	xchg   ax,ax
  10014b:	66 90                	xchg   ax,ax
  10014d:	66 90                	xchg   ax,ax
  10014f:	66 90                	xchg   ax,ax
  100151:	66 90                	xchg   ax,ax
  100153:	66 90                	xchg   ax,ax
  100155:	66 90                	xchg   ax,ax
  100157:	66 90                	xchg   ax,ax
  100159:	66 90                	xchg   ax,ax
  10015b:	66 90                	xchg   ax,ax
  10015d:	66 90                	xchg   ax,ax
  10015f:	66 90                	xchg   ax,ax
  100161:	66 90                	xchg   ax,ax
  100163:	66 90                	xchg   ax,ax
  100165:	66 90                	xchg   ax,ax
  100167:	66 90                	xchg   ax,ax
  100169:	66 90                	xchg   ax,ax
  10016b:	66 90                	xchg   ax,ax
  10016d:	66 90                	xchg   ax,ax
  10016f:	66 90                	xchg   ax,ax
  100171:	66 90                	xchg   ax,ax
  100173:	66 90                	xchg   ax,ax
  100175:	66 90                	xchg   ax,ax
  100177:	66 90                	xchg   ax,ax
  100179:	66 90                	xchg   ax,ax
  10017b:	66 90                	xchg   ax,ax
  10017d:	66 90                	xchg   ax,ax
  10017f:	66 90                	xchg   ax,ax
  100181:	66 90                	xchg   ax,ax
  100183:	66 90                	xchg   ax,ax
  100185:	66 90                	xchg   ax,ax
  100187:	66 90                	xchg   ax,ax
  100189:	66 90                	xchg   ax,ax
  10018b:	66 90                	xchg   ax,ax
  10018d:	66 90                	xchg   ax,ax
  10018f:	66 90                	xchg   ax,ax
  100191:	66 90                	xchg   ax,ax
  100193:	66 90                	xchg   ax,ax
  100195:	66 90                	xchg   ax,ax
  100197:	66 90                	xchg   ax,ax
  100199:	66 90                	xchg   ax,ax
  10019b:	66 90                	xchg   ax,ax
  10019d:	66 90                	xchg   ax,ax
  10019f:	66 90                	xchg   ax,ax
  1001a1:	66 90                	xchg   ax,ax
  1001a3:	66 90                	xchg   ax,ax
  1001a5:	66 90                	xchg   ax,ax
  1001a7:	66 90                	xchg   ax,ax
  1001a9:	66 90                	xchg   ax,ax
  1001ab:	66 90                	xchg   ax,ax
  1001ad:	66 90                	xchg   ax,ax
  1001af:	66 90                	xchg   ax,ax
  1001b1:	66 90                	xchg   ax,ax
  1001b3:	66 90                	xchg   ax,ax
  1001b5:	66 90                	xchg   ax,ax
  1001b7:	66 90                	xchg   ax,ax
  1001b9:	66 90                	xchg   ax,ax
  1001bb:	66 90                	xchg   ax,ax
  1001bd:	66 90                	xchg   ax,ax
  1001bf:	66 90                	xchg   ax,ax
  1001c1:	66 90                	xchg   ax,ax
  1001c3:	66 90                	xchg   ax,ax
  1001c5:	66 90                	xchg   ax,ax
  1001c7:	66 90                	xchg   ax,ax
  1001c9:	66 90                	xchg   ax,ax
  1001cb:	66 90                	xchg   ax,ax
  1001cd:	66 90                	xchg   ax,ax
  1001cf:	66 90                	xchg   ax,ax
  1001d1:	66 90                	xchg   ax,ax
  1001d3:	66 90                	xchg   ax,ax
  1001d5:	66 90                	xchg   ax,ax
  1001d7:	66 90                	xchg   ax,ax
  1001d9:	66 90                	xchg   ax,ax
  1001db:	66 90                	xchg   ax,ax
  1001dd:	66 90                	xchg   ax,ax
  1001df:	66 90                	xchg   ax,ax
  1001e1:	66 90                	xchg   ax,ax
  1001e3:	66 90                	xchg   ax,ax
  1001e5:	66 90                	xchg   ax,ax
  1001e7:	66 90                	xchg   ax,ax
  1001e9:	66 90                	xchg   ax,ax
  1001eb:	66 90                	xchg   ax,ax
  1001ed:	66 90                	xchg   ax,ax
  1001ef:	66 90                	xchg   ax,ax
  1001f1:	66 90                	xchg   ax,ax
  1001f3:	66 90                	xchg   ax,ax
  1001f5:	66 90                	xchg   ax,ax
  1001f7:	66 90                	xchg   ax,ax
  1001f9:	66 90                	xchg   ax,ax
  1001fb:	66 90                	xchg   ax,ax
  1001fd:	66 90                	xchg   ax,ax
  1001ff:	66 90                	xchg   ax,ax
  100201:	66 90                	xchg   ax,ax
  100203:	66 90                	xchg   ax,ax
  100205:	66 90                	xchg   ax,ax
  100207:	66 90                	xchg   ax,ax
  100209:	66 90                	xchg   ax,ax
  10020b:	66 90                	xchg   ax,ax
  10020d:	66 90                	xchg   ax,ax
  10020f:	66 90                	xchg   ax,ax
  100211:	66 90                	xchg   ax,ax
  100213:	66 90                	xchg   ax,ax
  100215:	66 90                	xchg   ax,ax
  100217:	66 90                	xchg   ax,ax
  100219:	66 90                	xchg   ax,ax
  10021b:	66 90                	xchg   ax,ax
  10021d:	66 90                	xchg   ax,ax
  10021f:	66 90                	xchg   ax,ax
  100221:	66 90                	xchg   ax,ax
  100223:	66 90                	xchg   ax,ax
  100225:	66 90                	xchg   ax,ax
  100227:	66 90                	xchg   ax,ax
  100229:	66 90                	xchg   ax,ax
  10022b:	66 90                	xchg   ax,ax
  10022d:	66 90                	xchg   ax,ax
  10022f:	66 90                	xchg   ax,ax
  100231:	66 90                	xchg   ax,ax
  100233:	66 90                	xchg   ax,ax
  100235:	66 90                	xchg   ax,ax
  100237:	66 90                	xchg   ax,ax
  100239:	66 90                	xchg   ax,ax
  10023b:	66 90                	xchg   ax,ax
  10023d:	66 90                	xchg   ax,ax
  10023f:	66 90                	xchg   ax,ax
  100241:	66 90                	xchg   ax,ax
  100243:	66 90                	xchg   ax,ax
  100245:	66 90                	xchg   ax,ax
  100247:	66 90                	xchg   ax,ax
  100249:	66 90                	xchg   ax,ax
  10024b:	66 90                	xchg   ax,ax
  10024d:	66 90                	xchg   ax,ax
  10024f:	66 90                	xchg   ax,ax
  100251:	66 90                	xchg   ax,ax
  100253:	66 90                	xchg   ax,ax
  100255:	66 90                	xchg   ax,ax
  100257:	66 90                	xchg   ax,ax
  100259:	66 90                	xchg   ax,ax
  10025b:	66 90                	xchg   ax,ax
  10025d:	66 90                	xchg   ax,ax
  10025f:	66 90                	xchg   ax,ax
  100261:	66 90                	xchg   ax,ax
  100263:	66 90                	xchg   ax,ax
  100265:	66 90                	xchg   ax,ax
  100267:	66 90                	xchg   ax,ax
  100269:	66 90                	xchg   ax,ax
  10026b:	66 90                	xchg   ax,ax
  10026d:	66 90                	xchg   ax,ax
  10026f:	66 90                	xchg   ax,ax
  100271:	66 90                	xchg   ax,ax
  100273:	66 90                	xchg   ax,ax
  100275:	66 90                	xchg   ax,ax
  100277:	66 90                	xchg   ax,ax
  100279:	66 90                	xchg   ax,ax
  10027b:	66 90                	xchg   ax,ax
  10027d:	66 90                	xchg   ax,ax
  10027f:	66 90                	xchg   ax,ax
  100281:	66 90                	xchg   ax,ax
  100283:	66 90                	xchg   ax,ax
  100285:	66 90                	xchg   ax,ax
  100287:	66 90                	xchg   ax,ax
  100289:	66 90                	xchg   ax,ax
  10028b:	66 90                	xchg   ax,ax
  10028d:	66 90                	xchg   ax,ax
  10028f:	66 90                	xchg   ax,ax
  100291:	66 90                	xchg   ax,ax
  100293:	66 90                	xchg   ax,ax
  100295:	66 90                	xchg   ax,ax
  100297:	66 90                	xchg   ax,ax
  100299:	66 90                	xchg   ax,ax
  10029b:	66 90                	xchg   ax,ax
  10029d:	66 90                	xchg   ax,ax
  10029f:	66 90                	xchg   ax,ax
  1002a1:	66 90                	xchg   ax,ax
  1002a3:	66 90                	xchg   ax,ax
  1002a5:	66 90                	xchg   ax,ax
  1002a7:	66 90                	xchg   ax,ax
  1002a9:	66 90                	xchg   ax,ax
  1002ab:	66 90                	xchg   ax,ax
  1002ad:	66 90                	xchg   ax,ax
  1002af:	66 90                	xchg   ax,ax
  1002b1:	66 90                	xchg   ax,ax
  1002b3:	66 90                	xchg   ax,ax
  1002b5:	66 90                	xchg   ax,ax
  1002b7:	66 90                	xchg   ax,ax
  1002b9:	66 90                	xchg   ax,ax
  1002bb:	66 90                	xchg   ax,ax
  1002bd:	66 90                	xchg   ax,ax
  1002bf:	66 90                	xchg   ax,ax
  1002c1:	66 90                	xchg   ax,ax
  1002c3:	66 90                	xchg   ax,ax
  1002c5:	66 90                	xchg   ax,ax
  1002c7:	66 90                	xchg   ax,ax
  1002c9:	66 90                	xchg   ax,ax
  1002cb:	66 90                	xchg   ax,ax
  1002cd:	66 90                	xchg   ax,ax
  1002cf:	66 90                	xchg   ax,ax
  1002d1:	66 90                	xchg   ax,ax
  1002d3:	66 90                	xchg   ax,ax
  1002d5:	66 90                	xchg   ax,ax
  1002d7:	66 90                	xchg   ax,ax
  1002d9:	66 90                	xchg   ax,ax
  1002db:	66 90                	xchg   ax,ax
  1002dd:	66 90                	xchg   ax,ax
  1002df:	66 90                	xchg   ax,ax
  1002e1:	66 90                	xchg   ax,ax
  1002e3:	66 90                	xchg   ax,ax
  1002e5:	66 90                	xchg   ax,ax
  1002e7:	66 90                	xchg   ax,ax
  1002e9:	66 90                	xchg   ax,ax
  1002eb:	66 90                	xchg   ax,ax
  1002ed:	66 90                	xchg   ax,ax
  1002ef:	66 90                	xchg   ax,ax
  1002f1:	66 90                	xchg   ax,ax
  1002f3:	66 90                	xchg   ax,ax
  1002f5:	66 90                	xchg   ax,ax
  1002f7:	66 90                	xchg   ax,ax
  1002f9:	66 90                	xchg   ax,ax
  1002fb:	66 90                	xchg   ax,ax
  1002fd:	66 90                	xchg   ax,ax
  1002ff:	66 90                	xchg   ax,ax
  100301:	66 90                	xchg   ax,ax
  100303:	66 90                	xchg   ax,ax
  100305:	66 90                	xchg   ax,ax
  100307:	66 90                	xchg   ax,ax
  100309:	66 90                	xchg   ax,ax
  10030b:	66 90                	xchg   ax,ax
  10030d:	66 90                	xchg   ax,ax
  10030f:	66 90                	xchg   ax,ax
  100311:	66 90                	xchg   ax,ax
  100313:	66 90                	xchg   ax,ax
  100315:	66 90                	xchg   ax,ax
  100317:	66 90                	xchg   ax,ax
  100319:	66 90                	xchg   ax,ax
  10031b:	66 90                	xchg   ax,ax
  10031d:	66 90                	xchg   ax,ax
  10031f:	66 90                	xchg   ax,ax
  100321:	66 90                	xchg   ax,ax
  100323:	66 90                	xchg   ax,ax
  100325:	66 90                	xchg   ax,ax
  100327:	66 90                	xchg   ax,ax
  100329:	66 90                	xchg   ax,ax
  10032b:	66 90                	xchg   ax,ax
  10032d:	66 90                	xchg   ax,ax
  10032f:	66 90                	xchg   ax,ax
  100331:	66 90                	xchg   ax,ax
  100333:	66 90                	xchg   ax,ax
  100335:	66 90                	xchg   ax,ax
  100337:	66 90                	xchg   ax,ax
  100339:	66 90                	xchg   ax,ax
  10033b:	66 90                	xchg   ax,ax
  10033d:	66 90                	xchg   ax,ax
  10033f:	66 90                	xchg   ax,ax
  100341:	66 90                	xchg   ax,ax
  100343:	66 90                	xchg   ax,ax
  100345:	66 90                	xchg   ax,ax
  100347:	66 90                	xchg   ax,ax
  100349:	66 90                	xchg   ax,ax
  10034b:	66 90                	xchg   ax,ax
  10034d:	66 90                	xchg   ax,ax
  10034f:	66 90                	xchg   ax,ax
  100351:	66 90                	xchg   ax,ax
  100353:	66 90                	xchg   ax,ax
  100355:	66 90                	xchg   ax,ax
  100357:	66 90                	xchg   ax,ax
  100359:	66 90                	xchg   ax,ax
  10035b:	66 90                	xchg   ax,ax
  10035d:	66 90                	xchg   ax,ax
  10035f:	66 90                	xchg   ax,ax
  100361:	66 90                	xchg   ax,ax
  100363:	66 90                	xchg   ax,ax
  100365:	66 90                	xchg   ax,ax
  100367:	66 90                	xchg   ax,ax
  100369:	66 90                	xchg   ax,ax
  10036b:	66 90                	xchg   ax,ax
  10036d:	66 90                	xchg   ax,ax
  10036f:	66 90                	xchg   ax,ax
  100371:	66 90                	xchg   ax,ax
  100373:	66 90                	xchg   ax,ax
  100375:	66 90                	xchg   ax,ax
  100377:	66 90                	xchg   ax,ax
  100379:	66 90                	xchg   ax,ax
  10037b:	66 90                	xchg   ax,ax
  10037d:	66 90                	xchg   ax,ax
  10037f:	66 90                	xchg   ax,ax
  100381:	66 90                	xchg   ax,ax
  100383:	66 90                	xchg   ax,ax
  100385:	66 90                	xchg   ax,ax
  100387:	66 90                	xchg   ax,ax
  100389:	66 90                	xchg   ax,ax
  10038b:	66 90                	xchg   ax,ax
  10038d:	66 90                	xchg   ax,ax
  10038f:	66 90                	xchg   ax,ax
  100391:	66 90                	xchg   ax,ax
  100393:	66 90                	xchg   ax,ax
  100395:	66 90                	xchg   ax,ax
  100397:	66 90                	xchg   ax,ax
  100399:	66 90                	xchg   ax,ax
  10039b:	66 90                	xchg   ax,ax
  10039d:	66 90                	xchg   ax,ax
  10039f:	66 90                	xchg   ax,ax
  1003a1:	66 90                	xchg   ax,ax
  1003a3:	66 90                	xchg   ax,ax
  1003a5:	66 90                	xchg   ax,ax
  1003a7:	66 90                	xchg   ax,ax
  1003a9:	66 90                	xchg   ax,ax
  1003ab:	66 90                	xchg   ax,ax
  1003ad:	66 90                	xchg   ax,ax
  1003af:	66 90                	xchg   ax,ax
  1003b1:	66 90                	xchg   ax,ax
  1003b3:	66 90                	xchg   ax,ax
  1003b5:	66 90                	xchg   ax,ax
  1003b7:	66 90                	xchg   ax,ax
  1003b9:	66 90                	xchg   ax,ax
  1003bb:	66 90                	xchg   ax,ax
  1003bd:	66 90                	xchg   ax,ax
  1003bf:	66 90                	xchg   ax,ax
  1003c1:	66 90                	xchg   ax,ax
  1003c3:	66 90                	xchg   ax,ax
  1003c5:	66 90                	xchg   ax,ax
  1003c7:	66 90                	xchg   ax,ax
  1003c9:	66 90                	xchg   ax,ax
  1003cb:	66 90                	xchg   ax,ax
  1003cd:	66 90                	xchg   ax,ax
  1003cf:	66 90                	xchg   ax,ax
  1003d1:	66 90                	xchg   ax,ax
  1003d3:	66 90                	xchg   ax,ax
  1003d5:	66 90                	xchg   ax,ax
  1003d7:	66 90                	xchg   ax,ax
  1003d9:	66 90                	xchg   ax,ax
  1003db:	66 90                	xchg   ax,ax
  1003dd:	66 90                	xchg   ax,ax
  1003df:	66 90                	xchg   ax,ax
  1003e1:	66 90                	xchg   ax,ax
  1003e3:	66 90                	xchg   ax,ax
  1003e5:	66 90                	xchg   ax,ax
  1003e7:	66 90                	xchg   ax,ax
  1003e9:	66 90                	xchg   ax,ax
  1003eb:	66 90                	xchg   ax,ax
  1003ed:	66 90                	xchg   ax,ax
  1003ef:	66 90                	xchg   ax,ax
  1003f1:	66 90                	xchg   ax,ax
  1003f3:	66 90                	xchg   ax,ax
  1003f5:	66 90                	xchg   ax,ax
  1003f7:	66 90                	xchg   ax,ax
  1003f9:	66 90                	xchg   ax,ax
  1003fb:	66 90                	xchg   ax,ax
  1003fd:	66 90                	xchg   ax,ax
  1003ff:	66 90                	xchg   ax,ax
  100401:	66 90                	xchg   ax,ax
  100403:	66 90                	xchg   ax,ax
  100405:	66 90                	xchg   ax,ax
  100407:	66 90                	xchg   ax,ax
  100409:	66 90                	xchg   ax,ax
  10040b:	66 90                	xchg   ax,ax
  10040d:	66 90                	xchg   ax,ax
  10040f:	66 90                	xchg   ax,ax
  100411:	66 90                	xchg   ax,ax
  100413:	66 90                	xchg   ax,ax
  100415:	66 90                	xchg   ax,ax
  100417:	66 90                	xchg   ax,ax
  100419:	66 90                	xchg   ax,ax
  10041b:	66 90                	xchg   ax,ax
  10041d:	66 90                	xchg   ax,ax
  10041f:	66 90                	xchg   ax,ax
  100421:	66 90                	xchg   ax,ax
  100423:	66 90                	xchg   ax,ax
  100425:	66 90                	xchg   ax,ax
  100427:	66 90                	xchg   ax,ax
  100429:	66 90                	xchg   ax,ax
  10042b:	66 90                	xchg   ax,ax
  10042d:	66 90                	xchg   ax,ax
  10042f:	66 90                	xchg   ax,ax
  100431:	66 90                	xchg   ax,ax
  100433:	66 90                	xchg   ax,ax
  100435:	66 90                	xchg   ax,ax
  100437:	66 90                	xchg   ax,ax
  100439:	66 90                	xchg   ax,ax
  10043b:	66 90                	xchg   ax,ax
  10043d:	66 90                	xchg   ax,ax
  10043f:	66 90                	xchg   ax,ax
  100441:	66 90                	xchg   ax,ax
  100443:	66 90                	xchg   ax,ax
  100445:	66 90                	xchg   ax,ax
  100447:	66 90                	xchg   ax,ax
  100449:	66 90                	xchg   ax,ax
  10044b:	66 90                	xchg   ax,ax
  10044d:	66 90                	xchg   ax,ax
  10044f:	66 90                	xchg   ax,ax
  100451:	66 90                	xchg   ax,ax
  100453:	66 90                	xchg   ax,ax
  100455:	66 90                	xchg   ax,ax
  100457:	66 90                	xchg   ax,ax
  100459:	66 90                	xchg   ax,ax
  10045b:	66 90                	xchg   ax,ax
  10045d:	66 90                	xchg   ax,ax
  10045f:	66 90                	xchg   ax,ax
  100461:	66 90                	xchg   ax,ax
  100463:	66 90                	xchg   ax,ax
  100465:	66 90                	xchg   ax,ax
  100467:	66 90                	xchg   ax,ax
  100469:	66 90                	xchg   ax,ax
  10046b:	66 90                	xchg   ax,ax
  10046d:	66 90                	xchg   ax,ax
  10046f:	66 90                	xchg   ax,ax
  100471:	66 90                	xchg   ax,ax
  100473:	66 90                	xchg   ax,ax
  100475:	66 90                	xchg   ax,ax
  100477:	66 90                	xchg   ax,ax
  100479:	66 90                	xchg   ax,ax
  10047b:	66 90                	xchg   ax,ax
  10047d:	66 90                	xchg   ax,ax
  10047f:	66 90                	xchg   ax,ax
  100481:	66 90                	xchg   ax,ax
  100483:	66 90                	xchg   ax,ax
  100485:	66 90                	xchg   ax,ax
  100487:	66 90                	xchg   ax,ax
  100489:	66 90                	xchg   ax,ax
  10048b:	66 90                	xchg   ax,ax
  10048d:	66 90                	xchg   ax,ax
  10048f:	66 90                	xchg   ax,ax
  100491:	66 90                	xchg   ax,ax
  100493:	66 90                	xchg   ax,ax
  100495:	66 90                	xchg   ax,ax
  100497:	66 90                	xchg   ax,ax
  100499:	66 90                	xchg   ax,ax
  10049b:	66 90                	xchg   ax,ax
  10049d:	66 90                	xchg   ax,ax
  10049f:	66 90                	xchg   ax,ax
  1004a1:	66 90                	xchg   ax,ax
  1004a3:	66 90                	xchg   ax,ax
  1004a5:	66 90                	xchg   ax,ax
  1004a7:	66 90                	xchg   ax,ax
  1004a9:	66 90                	xchg   ax,ax
  1004ab:	66 90                	xchg   ax,ax
  1004ad:	66 90                	xchg   ax,ax
  1004af:	66 90                	xchg   ax,ax
  1004b1:	66 90                	xchg   ax,ax
  1004b3:	66 90                	xchg   ax,ax
  1004b5:	66 90                	xchg   ax,ax
  1004b7:	66 90                	xchg   ax,ax
  1004b9:	66 90                	xchg   ax,ax
  1004bb:	66 90                	xchg   ax,ax
  1004bd:	66 90                	xchg   ax,ax
  1004bf:	66 90                	xchg   ax,ax
  1004c1:	66 90                	xchg   ax,ax
  1004c3:	66 90                	xchg   ax,ax
  1004c5:	66 90                	xchg   ax,ax
  1004c7:	66 90                	xchg   ax,ax
  1004c9:	66 90                	xchg   ax,ax
  1004cb:	66 90                	xchg   ax,ax
  1004cd:	66 90                	xchg   ax,ax
  1004cf:	66 90                	xchg   ax,ax
  1004d1:	66 90                	xchg   ax,ax
  1004d3:	66 90                	xchg   ax,ax
  1004d5:	66 90                	xchg   ax,ax
  1004d7:	66 90                	xchg   ax,ax
  1004d9:	66 90                	xchg   ax,ax
  1004db:	66 90                	xchg   ax,ax
  1004dd:	66 90                	xchg   ax,ax
  1004df:	66 90                	xchg   ax,ax
  1004e1:	66 90                	xchg   ax,ax
  1004e3:	66 90                	xchg   ax,ax
  1004e5:	66 90                	xchg   ax,ax
  1004e7:	66 90                	xchg   ax,ax
  1004e9:	66 90                	xchg   ax,ax
  1004eb:	66 90                	xchg   ax,ax
  1004ed:	66 90                	xchg   ax,ax
  1004ef:	66 90                	xchg   ax,ax
  1004f1:	66 90                	xchg   ax,ax
  1004f3:	66 90                	xchg   ax,ax
  1004f5:	66 90                	xchg   ax,ax
  1004f7:	66 90                	xchg   ax,ax
  1004f9:	66 90                	xchg   ax,ax
  1004fb:	66 90                	xchg   ax,ax
  1004fd:	66 90                	xchg   ax,ax
  1004ff:	66 90                	xchg   ax,ax
  100501:	66 90                	xchg   ax,ax
  100503:	66 90                	xchg   ax,ax
  100505:	66 90                	xchg   ax,ax
  100507:	66 90                	xchg   ax,ax
  100509:	66 90                	xchg   ax,ax
  10050b:	66 90                	xchg   ax,ax
  10050d:	66 90                	xchg   ax,ax
  10050f:	66 90                	xchg   ax,ax
  100511:	66 90                	xchg   ax,ax
  100513:	66 90                	xchg   ax,ax
  100515:	66 90                	xchg   ax,ax
  100517:	66 90                	xchg   ax,ax
  100519:	66 90                	xchg   ax,ax
  10051b:	66 90                	xchg   ax,ax
  10051d:	66 90                	xchg   ax,ax
  10051f:	66 90                	xchg   ax,ax
  100521:	66 90                	xchg   ax,ax
  100523:	66 90                	xchg   ax,ax
  100525:	66 90                	xchg   ax,ax
  100527:	66 90                	xchg   ax,ax
  100529:	66 90                	xchg   ax,ax
  10052b:	66 90                	xchg   ax,ax
  10052d:	66 90                	xchg   ax,ax
  10052f:	66 90                	xchg   ax,ax
  100531:	66 90                	xchg   ax,ax
  100533:	66 90                	xchg   ax,ax
  100535:	66 90                	xchg   ax,ax
  100537:	66 90                	xchg   ax,ax
  100539:	66 90                	xchg   ax,ax
  10053b:	66 90                	xchg   ax,ax
  10053d:	66 90                	xchg   ax,ax
  10053f:	66 90                	xchg   ax,ax
  100541:	66 90                	xchg   ax,ax
  100543:	66 90                	xchg   ax,ax
  100545:	66 90                	xchg   ax,ax
  100547:	66 90                	xchg   ax,ax
  100549:	66 90                	xchg   ax,ax
  10054b:	66 90                	xchg   ax,ax
  10054d:	66 90                	xchg   ax,ax
  10054f:	66 90                	xchg   ax,ax
  100551:	66 90                	xchg   ax,ax
  100553:	66 90                	xchg   ax,ax
  100555:	66 90                	xchg   ax,ax
  100557:	66 90                	xchg   ax,ax
  100559:	66 90                	xchg   ax,ax
  10055b:	66 90                	xchg   ax,ax
  10055d:	66 90                	xchg   ax,ax
  10055f:	66 90                	xchg   ax,ax
  100561:	66 90                	xchg   ax,ax
  100563:	66 90                	xchg   ax,ax
  100565:	66 90                	xchg   ax,ax
  100567:	66 90                	xchg   ax,ax
  100569:	66 90                	xchg   ax,ax
  10056b:	66 90                	xchg   ax,ax
  10056d:	66 90                	xchg   ax,ax
  10056f:	66 90                	xchg   ax,ax
  100571:	66 90                	xchg   ax,ax
  100573:	66 90                	xchg   ax,ax
  100575:	66 90                	xchg   ax,ax
  100577:	66 90                	xchg   ax,ax
  100579:	66 90                	xchg   ax,ax
  10057b:	66 90                	xchg   ax,ax
  10057d:	66 90                	xchg   ax,ax
  10057f:	66 90                	xchg   ax,ax
  100581:	66 90                	xchg   ax,ax
  100583:	66 90                	xchg   ax,ax
  100585:	66 90                	xchg   ax,ax
  100587:	66 90                	xchg   ax,ax
  100589:	66 90                	xchg   ax,ax
  10058b:	66 90                	xchg   ax,ax
  10058d:	66 90                	xchg   ax,ax
  10058f:	66 90                	xchg   ax,ax
  100591:	66 90                	xchg   ax,ax
  100593:	66 90                	xchg   ax,ax
  100595:	66 90                	xchg   ax,ax
  100597:	66 90                	xchg   ax,ax
  100599:	66 90                	xchg   ax,ax
  10059b:	66 90                	xchg   ax,ax
  10059d:	66 90                	xchg   ax,ax
  10059f:	66 90                	xchg   ax,ax
  1005a1:	66 90                	xchg   ax,ax
  1005a3:	66 90                	xchg   ax,ax
  1005a5:	66 90                	xchg   ax,ax
  1005a7:	66 90                	xchg   ax,ax
  1005a9:	66 90                	xchg   ax,ax
  1005ab:	66 90                	xchg   ax,ax
  1005ad:	66 90                	xchg   ax,ax
  1005af:	66 90                	xchg   ax,ax
  1005b1:	66 90                	xchg   ax,ax
  1005b3:	66 90                	xchg   ax,ax
  1005b5:	66 90                	xchg   ax,ax
  1005b7:	66 90                	xchg   ax,ax
  1005b9:	66 90                	xchg   ax,ax
  1005bb:	66 90                	xchg   ax,ax
  1005bd:	66 90                	xchg   ax,ax
  1005bf:	66 90                	xchg   ax,ax
  1005c1:	66 90                	xchg   ax,ax
  1005c3:	66 90                	xchg   ax,ax
  1005c5:	66 90                	xchg   ax,ax
  1005c7:	66 90                	xchg   ax,ax
  1005c9:	66 90                	xchg   ax,ax
  1005cb:	66 90                	xchg   ax,ax
  1005cd:	66 90                	xchg   ax,ax
  1005cf:	66 90                	xchg   ax,ax
  1005d1:	66 90                	xchg   ax,ax
  1005d3:	66 90                	xchg   ax,ax
  1005d5:	66 90                	xchg   ax,ax
  1005d7:	66 90                	xchg   ax,ax
  1005d9:	66 90                	xchg   ax,ax
  1005db:	66 90                	xchg   ax,ax
  1005dd:	66 90                	xchg   ax,ax
  1005df:	66 90                	xchg   ax,ax
  1005e1:	66 90                	xchg   ax,ax
  1005e3:	66 90                	xchg   ax,ax
  1005e5:	66 90                	xchg   ax,ax
  1005e7:	66 90                	xchg   ax,ax
  1005e9:	66 90                	xchg   ax,ax
  1005eb:	66 90                	xchg   ax,ax
  1005ed:	66 90                	xchg   ax,ax
  1005ef:	66 90                	xchg   ax,ax
  1005f1:	66 90                	xchg   ax,ax
  1005f3:	66 90                	xchg   ax,ax
  1005f5:	66 90                	xchg   ax,ax
  1005f7:	66 90                	xchg   ax,ax
  1005f9:	66 90                	xchg   ax,ax
  1005fb:	66 90                	xchg   ax,ax
  1005fd:	66 90                	xchg   ax,ax
  1005ff:	66 90                	xchg   ax,ax
  100601:	66 90                	xchg   ax,ax
  100603:	66 90                	xchg   ax,ax
  100605:	66 90                	xchg   ax,ax
  100607:	66 90                	xchg   ax,ax
  100609:	66 90                	xchg   ax,ax
  10060b:	66 90                	xchg   ax,ax
  10060d:	66 90                	xchg   ax,ax
  10060f:	66 90                	xchg   ax,ax
  100611:	66 90                	xchg   ax,ax
  100613:	66 90                	xchg   ax,ax
  100615:	66 90                	xchg   ax,ax
  100617:	66 90                	xchg   ax,ax
  100619:	66 90                	xchg   ax,ax
  10061b:	66 90                	xchg   ax,ax
  10061d:	66 90                	xchg   ax,ax
  10061f:	66 90                	xchg   ax,ax
  100621:	66 90                	xchg   ax,ax
  100623:	66 90                	xchg   ax,ax
  100625:	66 90                	xchg   ax,ax
  100627:	66 90                	xchg   ax,ax
  100629:	66 90                	xchg   ax,ax
  10062b:	66 90                	xchg   ax,ax
  10062d:	66 90                	xchg   ax,ax
  10062f:	66 90                	xchg   ax,ax
  100631:	66 90                	xchg   ax,ax
  100633:	66 90                	xchg   ax,ax
  100635:	66 90                	xchg   ax,ax
  100637:	66 90                	xchg   ax,ax
  100639:	66 90                	xchg   ax,ax
  10063b:	66 90                	xchg   ax,ax
  10063d:	66 90                	xchg   ax,ax
  10063f:	66 90                	xchg   ax,ax
  100641:	66 90                	xchg   ax,ax
  100643:	66 90                	xchg   ax,ax
  100645:	66 90                	xchg   ax,ax
  100647:	66 90                	xchg   ax,ax
  100649:	66 90                	xchg   ax,ax
  10064b:	66 90                	xchg   ax,ax
  10064d:	66 90                	xchg   ax,ax
  10064f:	66 90                	xchg   ax,ax
  100651:	66 90                	xchg   ax,ax
  100653:	66 90                	xchg   ax,ax
  100655:	66 90                	xchg   ax,ax
  100657:	66 90                	xchg   ax,ax
  100659:	66 90                	xchg   ax,ax
  10065b:	66 90                	xchg   ax,ax
  10065d:	66 90                	xchg   ax,ax
  10065f:	66 90                	xchg   ax,ax
  100661:	66 90                	xchg   ax,ax
  100663:	66 90                	xchg   ax,ax
  100665:	66 90                	xchg   ax,ax
  100667:	66 90                	xchg   ax,ax
  100669:	66 90                	xchg   ax,ax
  10066b:	66 90                	xchg   ax,ax
  10066d:	66 90                	xchg   ax,ax
  10066f:	66 90                	xchg   ax,ax
  100671:	66 90                	xchg   ax,ax
  100673:	66 90                	xchg   ax,ax
  100675:	66 90                	xchg   ax,ax
  100677:	66 90                	xchg   ax,ax
  100679:	66 90                	xchg   ax,ax
  10067b:	66 90                	xchg   ax,ax
  10067d:	66 90                	xchg   ax,ax
  10067f:	66 90                	xchg   ax,ax
  100681:	66 90                	xchg   ax,ax
  100683:	66 90                	xchg   ax,ax
  100685:	66 90                	xchg   ax,ax
  100687:	66 90                	xchg   ax,ax
  100689:	66 90                	xchg   ax,ax
  10068b:	66 90                	xchg   ax,ax
  10068d:	66 90                	xchg   ax,ax
  10068f:	66 90                	xchg   ax,ax
  100691:	66 90                	xchg   ax,ax
  100693:	66 90                	xchg   ax,ax
  100695:	66 90                	xchg   ax,ax
  100697:	66 90                	xchg   ax,ax
  100699:	66 90                	xchg   ax,ax
  10069b:	66 90                	xchg   ax,ax
  10069d:	66 90                	xchg   ax,ax
  10069f:	66 90                	xchg   ax,ax
  1006a1:	66 90                	xchg   ax,ax
  1006a3:	66 90                	xchg   ax,ax
  1006a5:	66 90                	xchg   ax,ax
  1006a7:	66 90                	xchg   ax,ax
  1006a9:	66 90                	xchg   ax,ax
  1006ab:	66 90                	xchg   ax,ax
  1006ad:	66 90                	xchg   ax,ax
  1006af:	66 90                	xchg   ax,ax
  1006b1:	66 90                	xchg   ax,ax
  1006b3:	66 90                	xchg   ax,ax
  1006b5:	66 90                	xchg   ax,ax
  1006b7:	66 90                	xchg   ax,ax
  1006b9:	66 90                	xchg   ax,ax
  1006bb:	66 90                	xchg   ax,ax
  1006bd:	66 90                	xchg   ax,ax
  1006bf:	66 90                	xchg   ax,ax
  1006c1:	66 90                	xchg   ax,ax
  1006c3:	66 90                	xchg   ax,ax
  1006c5:	66 90                	xchg   ax,ax
  1006c7:	66 90                	xchg   ax,ax
  1006c9:	66 90                	xchg   ax,ax
  1006cb:	66 90                	xchg   ax,ax
  1006cd:	66 90                	xchg   ax,ax
  1006cf:	66 90                	xchg   ax,ax
  1006d1:	66 90                	xchg   ax,ax
  1006d3:	66 90                	xchg   ax,ax
  1006d5:	66 90                	xchg   ax,ax
  1006d7:	66 90                	xchg   ax,ax
  1006d9:	66 90                	xchg   ax,ax
  1006db:	66 90                	xchg   ax,ax
  1006dd:	66 90                	xchg   ax,ax
  1006df:	66 90                	xchg   ax,ax
  1006e1:	66 90                	xchg   ax,ax
  1006e3:	66 90                	xchg   ax,ax
  1006e5:	66 90                	xchg   ax,ax
  1006e7:	66 90                	xchg   ax,ax
  1006e9:	66 90                	xchg   ax,ax
  1006eb:	66 90                	xchg   ax,ax
  1006ed:	66 90                	xchg   ax,ax
  1006ef:	66 90                	xchg   ax,ax
  1006f1:	66 90                	xchg   ax,ax
  1006f3:	66 90                	xchg   ax,ax
  1006f5:	66 90                	xchg   ax,ax
  1006f7:	66 90                	xchg   ax,ax
  1006f9:	66 90                	xchg   ax,ax
  1006fb:	66 90                	xchg   ax,ax
  1006fd:	66 90                	xchg   ax,ax
  1006ff:	66 90                	xchg   ax,ax
  100701:	66 90                	xchg   ax,ax
  100703:	66 90                	xchg   ax,ax
  100705:	66 90                	xchg   ax,ax
  100707:	66 90                	xchg   ax,ax
  100709:	66 90                	xchg   ax,ax
  10070b:	66 90                	xchg   ax,ax
  10070d:	66 90                	xchg   ax,ax
  10070f:	66 90                	xchg   ax,ax
  100711:	66 90                	xchg   ax,ax
  100713:	66 90                	xchg   ax,ax
  100715:	66 90                	xchg   ax,ax
  100717:	66 90                	xchg   ax,ax
  100719:	66 90                	xchg   ax,ax
  10071b:	66 90                	xchg   ax,ax
  10071d:	66 90                	xchg   ax,ax
  10071f:	66 90                	xchg   ax,ax
  100721:	66 90                	xchg   ax,ax
  100723:	66 90                	xchg   ax,ax
  100725:	66 90                	xchg   ax,ax
  100727:	66 90                	xchg   ax,ax
  100729:	66 90                	xchg   ax,ax
  10072b:	66 90                	xchg   ax,ax
  10072d:	66 90                	xchg   ax,ax
  10072f:	66 90                	xchg   ax,ax
  100731:	66 90                	xchg   ax,ax
  100733:	66 90                	xchg   ax,ax
  100735:	66 90                	xchg   ax,ax
  100737:	66 90                	xchg   ax,ax
  100739:	66 90                	xchg   ax,ax
  10073b:	66 90                	xchg   ax,ax
  10073d:	66 90                	xchg   ax,ax
  10073f:	66 90                	xchg   ax,ax
  100741:	66 90                	xchg   ax,ax
  100743:	66 90                	xchg   ax,ax
  100745:	66 90                	xchg   ax,ax
  100747:	66 90                	xchg   ax,ax
  100749:	66 90                	xchg   ax,ax
  10074b:	66 90                	xchg   ax,ax
  10074d:	66 90                	xchg   ax,ax
  10074f:	66 90                	xchg   ax,ax
  100751:	66 90                	xchg   ax,ax
  100753:	66 90                	xchg   ax,ax
  100755:	66 90                	xchg   ax,ax
  100757:	66 90                	xchg   ax,ax
  100759:	66 90                	xchg   ax,ax
  10075b:	66 90                	xchg   ax,ax
  10075d:	66 90                	xchg   ax,ax
  10075f:	66 90                	xchg   ax,ax
  100761:	66 90                	xchg   ax,ax
  100763:	66 90                	xchg   ax,ax
  100765:	66 90                	xchg   ax,ax
  100767:	66 90                	xchg   ax,ax
  100769:	66 90                	xchg   ax,ax
  10076b:	66 90                	xchg   ax,ax
  10076d:	66 90                	xchg   ax,ax
  10076f:	66 90                	xchg   ax,ax
  100771:	66 90                	xchg   ax,ax
  100773:	66 90                	xchg   ax,ax
  100775:	66 90                	xchg   ax,ax
  100777:	66 90                	xchg   ax,ax
  100779:	66 90                	xchg   ax,ax
  10077b:	66 90                	xchg   ax,ax
  10077d:	66 90                	xchg   ax,ax
  10077f:	66 90                	xchg   ax,ax
  100781:	66 90                	xchg   ax,ax
  100783:	66 90                	xchg   ax,ax
  100785:	66 90                	xchg   ax,ax
  100787:	66 90                	xchg   ax,ax
  100789:	66 90                	xchg   ax,ax
  10078b:	66 90                	xchg   ax,ax
  10078d:	66 90                	xchg   ax,ax
  10078f:	66 90                	xchg   ax,ax
  100791:	66 90                	xchg   ax,ax
  100793:	66 90                	xchg   ax,ax
  100795:	66 90                	xchg   ax,ax
  100797:	66 90                	xchg   ax,ax
  100799:	66 90                	xchg   ax,ax
  10079b:	66 90                	xchg   ax,ax
  10079d:	66 90                	xchg   ax,ax
  10079f:	66 90                	xchg   ax,ax
  1007a1:	66 90                	xchg   ax,ax
  1007a3:	66 90                	xchg   ax,ax
  1007a5:	66 90                	xchg   ax,ax
  1007a7:	66 90                	xchg   ax,ax
  1007a9:	66 90                	xchg   ax,ax
  1007ab:	66 90                	xchg   ax,ax
  1007ad:	66 90                	xchg   ax,ax
  1007af:	66 90                	xchg   ax,ax
  1007b1:	66 90                	xchg   ax,ax
  1007b3:	66 90                	xchg   ax,ax
  1007b5:	66 90                	xchg   ax,ax
  1007b7:	66 90                	xchg   ax,ax
  1007b9:	66 90                	xchg   ax,ax
  1007bb:	66 90                	xchg   ax,ax
  1007bd:	66 90                	xchg   ax,ax
  1007bf:	66 90                	xchg   ax,ax
  1007c1:	66 90                	xchg   ax,ax
  1007c3:	66 90                	xchg   ax,ax
  1007c5:	66 90                	xchg   ax,ax
  1007c7:	66 90                	xchg   ax,ax
  1007c9:	66 90                	xchg   ax,ax
  1007cb:	66 90                	xchg   ax,ax
  1007cd:	66 90                	xchg   ax,ax
  1007cf:	66 90                	xchg   ax,ax
  1007d1:	66 90                	xchg   ax,ax
  1007d3:	66 90                	xchg   ax,ax
  1007d5:	66 90                	xchg   ax,ax
  1007d7:	66 90                	xchg   ax,ax
  1007d9:	66 90                	xchg   ax,ax
  1007db:	66 90                	xchg   ax,ax
  1007dd:	66 90                	xchg   ax,ax
  1007df:	66 90                	xchg   ax,ax
  1007e1:	66 90                	xchg   ax,ax
  1007e3:	66 90                	xchg   ax,ax
  1007e5:	66 90                	xchg   ax,ax
  1007e7:	66 90                	xchg   ax,ax
  1007e9:	66 90                	xchg   ax,ax
  1007eb:	66 90                	xchg   ax,ax
  1007ed:	66 90                	xchg   ax,ax
  1007ef:	66 90                	xchg   ax,ax
  1007f1:	66 90                	xchg   ax,ax
  1007f3:	66 90                	xchg   ax,ax
  1007f5:	66 90                	xchg   ax,ax
  1007f7:	66 90                	xchg   ax,ax
  1007f9:	66 90                	xchg   ax,ax
  1007fb:	66 90                	xchg   ax,ax
  1007fd:	66 90                	xchg   ax,ax
  1007ff:	66 90                	xchg   ax,ax
  100801:	66 90                	xchg   ax,ax
  100803:	66 90                	xchg   ax,ax
  100805:	66 90                	xchg   ax,ax
  100807:	66 90                	xchg   ax,ax
  100809:	66 90                	xchg   ax,ax
  10080b:	66 90                	xchg   ax,ax
  10080d:	66 90                	xchg   ax,ax
  10080f:	66 90                	xchg   ax,ax
  100811:	66 90                	xchg   ax,ax
  100813:	66 90                	xchg   ax,ax
  100815:	66 90                	xchg   ax,ax
  100817:	66 90                	xchg   ax,ax
  100819:	66 90                	xchg   ax,ax
  10081b:	66 90                	xchg   ax,ax
  10081d:	66 90                	xchg   ax,ax
  10081f:	66 90                	xchg   ax,ax
  100821:	66 90                	xchg   ax,ax
  100823:	66 90                	xchg   ax,ax
  100825:	66 90                	xchg   ax,ax
  100827:	66 90                	xchg   ax,ax
  100829:	66 90                	xchg   ax,ax
  10082b:	66 90                	xchg   ax,ax
  10082d:	66 90                	xchg   ax,ax
  10082f:	66 90                	xchg   ax,ax
  100831:	66 90                	xchg   ax,ax
  100833:	66 90                	xchg   ax,ax
  100835:	66 90                	xchg   ax,ax
  100837:	66 90                	xchg   ax,ax
  100839:	66 90                	xchg   ax,ax
  10083b:	66 90                	xchg   ax,ax
  10083d:	66 90                	xchg   ax,ax
  10083f:	66 90                	xchg   ax,ax
  100841:	66 90                	xchg   ax,ax
  100843:	66 90                	xchg   ax,ax
  100845:	66 90                	xchg   ax,ax
  100847:	66 90                	xchg   ax,ax
  100849:	66 90                	xchg   ax,ax
  10084b:	66 90                	xchg   ax,ax
  10084d:	66 90                	xchg   ax,ax
  10084f:	66 90                	xchg   ax,ax
  100851:	66 90                	xchg   ax,ax
  100853:	66 90                	xchg   ax,ax
  100855:	66 90                	xchg   ax,ax
  100857:	66 90                	xchg   ax,ax
  100859:	66 90                	xchg   ax,ax
  10085b:	66 90                	xchg   ax,ax
  10085d:	66 90                	xchg   ax,ax
  10085f:	66 90                	xchg   ax,ax
  100861:	66 90                	xchg   ax,ax
  100863:	66 90                	xchg   ax,ax
  100865:	66 90                	xchg   ax,ax
  100867:	66 90                	xchg   ax,ax
  100869:	66 90                	xchg   ax,ax
  10086b:	66 90                	xchg   ax,ax
  10086d:	66 90                	xchg   ax,ax
  10086f:	66 90                	xchg   ax,ax
  100871:	66 90                	xchg   ax,ax
  100873:	66 90                	xchg   ax,ax
  100875:	66 90                	xchg   ax,ax
  100877:	66 90                	xchg   ax,ax
  100879:	66 90                	xchg   ax,ax
  10087b:	66 90                	xchg   ax,ax
  10087d:	66 90                	xchg   ax,ax
  10087f:	66 90                	xchg   ax,ax
  100881:	66 90                	xchg   ax,ax
  100883:	66 90                	xchg   ax,ax
  100885:	66 90                	xchg   ax,ax
  100887:	66 90                	xchg   ax,ax
  100889:	66 90                	xchg   ax,ax
  10088b:	66 90                	xchg   ax,ax
  10088d:	66 90                	xchg   ax,ax
  10088f:	66 90                	xchg   ax,ax
  100891:	66 90                	xchg   ax,ax
  100893:	66 90                	xchg   ax,ax
  100895:	66 90                	xchg   ax,ax
  100897:	66 90                	xchg   ax,ax
  100899:	66 90                	xchg   ax,ax
  10089b:	66 90                	xchg   ax,ax
  10089d:	66 90                	xchg   ax,ax
  10089f:	66 90                	xchg   ax,ax
  1008a1:	66 90                	xchg   ax,ax
  1008a3:	66 90                	xchg   ax,ax
  1008a5:	66 90                	xchg   ax,ax
  1008a7:	66 90                	xchg   ax,ax
  1008a9:	66 90                	xchg   ax,ax
  1008ab:	66 90                	xchg   ax,ax
  1008ad:	66 90                	xchg   ax,ax
  1008af:	66 90                	xchg   ax,ax
  1008b1:	66 90                	xchg   ax,ax
  1008b3:	66 90                	xchg   ax,ax
  1008b5:	66 90                	xchg   ax,ax
  1008b7:	66 90                	xchg   ax,ax
  1008b9:	66 90                	xchg   ax,ax
  1008bb:	66 90                	xchg   ax,ax
  1008bd:	66 90                	xchg   ax,ax
  1008bf:	66 90                	xchg   ax,ax
  1008c1:	66 90                	xchg   ax,ax
  1008c3:	66 90                	xchg   ax,ax
  1008c5:	66 90                	xchg   ax,ax
  1008c7:	66 90                	xchg   ax,ax
  1008c9:	66 90                	xchg   ax,ax
  1008cb:	66 90                	xchg   ax,ax
  1008cd:	66 90                	xchg   ax,ax
  1008cf:	66 90                	xchg   ax,ax
  1008d1:	66 90                	xchg   ax,ax
  1008d3:	66 90                	xchg   ax,ax
  1008d5:	66 90                	xchg   ax,ax
  1008d7:	66 90                	xchg   ax,ax
  1008d9:	66 90                	xchg   ax,ax
  1008db:	66 90                	xchg   ax,ax
  1008dd:	66 90                	xchg   ax,ax
  1008df:	66 90                	xchg   ax,ax
  1008e1:	66 90                	xchg   ax,ax
  1008e3:	66 90                	xchg   ax,ax
  1008e5:	66 90                	xchg   ax,ax
  1008e7:	66 90                	xchg   ax,ax
  1008e9:	66 90                	xchg   ax,ax
  1008eb:	66 90                	xchg   ax,ax
  1008ed:	66 90                	xchg   ax,ax
  1008ef:	66 90                	xchg   ax,ax
  1008f1:	66 90                	xchg   ax,ax
  1008f3:	66 90                	xchg   ax,ax
  1008f5:	66 90                	xchg   ax,ax
  1008f7:	66 90                	xchg   ax,ax
  1008f9:	66 90                	xchg   ax,ax
  1008fb:	66 90                	xchg   ax,ax
  1008fd:	66 90                	xchg   ax,ax
  1008ff:	66 90                	xchg   ax,ax
  100901:	66 90                	xchg   ax,ax
  100903:	66 90                	xchg   ax,ax
  100905:	66 90                	xchg   ax,ax
  100907:	66 90                	xchg   ax,ax
  100909:	66 90                	xchg   ax,ax
  10090b:	66 90                	xchg   ax,ax
  10090d:	66 90                	xchg   ax,ax
  10090f:	66 90                	xchg   ax,ax
  100911:	66 90                	xchg   ax,ax
  100913:	66 90                	xchg   ax,ax
  100915:	66 90                	xchg   ax,ax
  100917:	66 90                	xchg   ax,ax
  100919:	66 90                	xchg   ax,ax
  10091b:	66 90                	xchg   ax,ax
  10091d:	66 90                	xchg   ax,ax
  10091f:	66 90                	xchg   ax,ax
  100921:	66 90                	xchg   ax,ax
  100923:	66 90                	xchg   ax,ax
  100925:	66 90                	xchg   ax,ax
  100927:	66 90                	xchg   ax,ax
  100929:	66 90                	xchg   ax,ax
  10092b:	66 90                	xchg   ax,ax
  10092d:	66 90                	xchg   ax,ax
  10092f:	66 90                	xchg   ax,ax
  100931:	66 90                	xchg   ax,ax
  100933:	66 90                	xchg   ax,ax
  100935:	66 90                	xchg   ax,ax
  100937:	66 90                	xchg   ax,ax
  100939:	66 90                	xchg   ax,ax
  10093b:	66 90                	xchg   ax,ax
  10093d:	66 90                	xchg   ax,ax
  10093f:	66 90                	xchg   ax,ax
  100941:	66 90                	xchg   ax,ax
  100943:	66 90                	xchg   ax,ax
  100945:	66 90                	xchg   ax,ax
  100947:	66 90                	xchg   ax,ax
  100949:	66 90                	xchg   ax,ax
  10094b:	66 90                	xchg   ax,ax
  10094d:	66 90                	xchg   ax,ax
  10094f:	66 90                	xchg   ax,ax
  100951:	66 90                	xchg   ax,ax
  100953:	66 90                	xchg   ax,ax
  100955:	66 90                	xchg   ax,ax
  100957:	66 90                	xchg   ax,ax
  100959:	66 90                	xchg   ax,ax
  10095b:	66 90                	xchg   ax,ax
  10095d:	66 90                	xchg   ax,ax
  10095f:	66 90                	xchg   ax,ax
  100961:	66 90                	xchg   ax,ax
  100963:	66 90                	xchg   ax,ax
  100965:	66 90                	xchg   ax,ax
  100967:	66 90                	xchg   ax,ax
  100969:	66 90                	xchg   ax,ax
  10096b:	66 90                	xchg   ax,ax
  10096d:	66 90                	xchg   ax,ax
  10096f:	66 90                	xchg   ax,ax
  100971:	66 90                	xchg   ax,ax
  100973:	66 90                	xchg   ax,ax
  100975:	66 90                	xchg   ax,ax
  100977:	66 90                	xchg   ax,ax
  100979:	66 90                	xchg   ax,ax
  10097b:	66 90                	xchg   ax,ax
  10097d:	66 90                	xchg   ax,ax
  10097f:	66 90                	xchg   ax,ax
  100981:	66 90                	xchg   ax,ax
  100983:	66 90                	xchg   ax,ax
  100985:	66 90                	xchg   ax,ax
  100987:	66 90                	xchg   ax,ax
  100989:	66 90                	xchg   ax,ax
  10098b:	66 90                	xchg   ax,ax
  10098d:	66 90                	xchg   ax,ax
  10098f:	66 90                	xchg   ax,ax
  100991:	66 90                	xchg   ax,ax
  100993:	66 90                	xchg   ax,ax
  100995:	66 90                	xchg   ax,ax
  100997:	66 90                	xchg   ax,ax
  100999:	66 90                	xchg   ax,ax
  10099b:	66 90                	xchg   ax,ax
  10099d:	66 90                	xchg   ax,ax
  10099f:	66 90                	xchg   ax,ax
  1009a1:	66 90                	xchg   ax,ax
  1009a3:	66 90                	xchg   ax,ax
  1009a5:	66 90                	xchg   ax,ax
  1009a7:	66 90                	xchg   ax,ax
  1009a9:	66 90                	xchg   ax,ax
  1009ab:	66 90                	xchg   ax,ax
  1009ad:	66 90                	xchg   ax,ax
  1009af:	66 90                	xchg   ax,ax
  1009b1:	66 90                	xchg   ax,ax
  1009b3:	66 90                	xchg   ax,ax
  1009b5:	66 90                	xchg   ax,ax
  1009b7:	66 90                	xchg   ax,ax
  1009b9:	66 90                	xchg   ax,ax
  1009bb:	66 90                	xchg   ax,ax
  1009bd:	66 90                	xchg   ax,ax
  1009bf:	66 90                	xchg   ax,ax
  1009c1:	66 90                	xchg   ax,ax
  1009c3:	66 90                	xchg   ax,ax
  1009c5:	66 90                	xchg   ax,ax
  1009c7:	66 90                	xchg   ax,ax
  1009c9:	66 90                	xchg   ax,ax
  1009cb:	66 90                	xchg   ax,ax
  1009cd:	66 90                	xchg   ax,ax
  1009cf:	66 90                	xchg   ax,ax
  1009d1:	66 90                	xchg   ax,ax
  1009d3:	66 90                	xchg   ax,ax
  1009d5:	66 90                	xchg   ax,ax
  1009d7:	66 90                	xchg   ax,ax
  1009d9:	66 90                	xchg   ax,ax
  1009db:	66 90                	xchg   ax,ax
  1009dd:	66 90                	xchg   ax,ax
  1009df:	66 90                	xchg   ax,ax
  1009e1:	66 90                	xchg   ax,ax
  1009e3:	66 90                	xchg   ax,ax
  1009e5:	66 90                	xchg   ax,ax
  1009e7:	66 90                	xchg   ax,ax
  1009e9:	66 90                	xchg   ax,ax
  1009eb:	66 90                	xchg   ax,ax
  1009ed:	66 90                	xchg   ax,ax
  1009ef:	66 90                	xchg   ax,ax
  1009f1:	66 90                	xchg   ax,ax
  1009f3:	66 90                	xchg   ax,ax
  1009f5:	66 90                	xchg   ax,ax
  1009f7:	66 90                	xchg   ax,ax
  1009f9:	66 90                	xchg   ax,ax
  1009fb:	66 90                	xchg   ax,ax
  1009fd:	66 90                	xchg   ax,ax
  1009ff:	66 90                	xchg   ax,ax
  100a01:	66 90                	xchg   ax,ax
  100a03:	66 90                	xchg   ax,ax
  100a05:	66 90                	xchg   ax,ax
  100a07:	66 90                	xchg   ax,ax
  100a09:	66 90                	xchg   ax,ax
  100a0b:	66 90                	xchg   ax,ax
  100a0d:	66 90                	xchg   ax,ax
  100a0f:	66 90                	xchg   ax,ax
  100a11:	66 90                	xchg   ax,ax
  100a13:	66 90                	xchg   ax,ax
  100a15:	66 90                	xchg   ax,ax
  100a17:	66 90                	xchg   ax,ax
  100a19:	66 90                	xchg   ax,ax
  100a1b:	66 90                	xchg   ax,ax
  100a1d:	66 90                	xchg   ax,ax
  100a1f:	66 90                	xchg   ax,ax
  100a21:	66 90                	xchg   ax,ax
  100a23:	66 90                	xchg   ax,ax
  100a25:	66 90                	xchg   ax,ax
  100a27:	66 90                	xchg   ax,ax
  100a29:	66 90                	xchg   ax,ax
  100a2b:	66 90                	xchg   ax,ax
  100a2d:	66 90                	xchg   ax,ax
  100a2f:	66 90                	xchg   ax,ax
  100a31:	66 90                	xchg   ax,ax
  100a33:	66 90                	xchg   ax,ax
  100a35:	66 90                	xchg   ax,ax
  100a37:	66 90                	xchg   ax,ax
  100a39:	66 90                	xchg   ax,ax
  100a3b:	66 90                	xchg   ax,ax
  100a3d:	66 90                	xchg   ax,ax
  100a3f:	66 90                	xchg   ax,ax
  100a41:	66 90                	xchg   ax,ax
  100a43:	66 90                	xchg   ax,ax
  100a45:	66 90                	xchg   ax,ax
  100a47:	66 90                	xchg   ax,ax
  100a49:	66 90                	xchg   ax,ax
  100a4b:	66 90                	xchg   ax,ax
  100a4d:	66 90                	xchg   ax,ax
  100a4f:	66 90                	xchg   ax,ax
  100a51:	66 90                	xchg   ax,ax
  100a53:	66 90                	xchg   ax,ax
  100a55:	66 90                	xchg   ax,ax
  100a57:	66 90                	xchg   ax,ax
  100a59:	66 90                	xchg   ax,ax
  100a5b:	66 90                	xchg   ax,ax
  100a5d:	66 90                	xchg   ax,ax
  100a5f:	66 90                	xchg   ax,ax
  100a61:	66 90                	xchg   ax,ax
  100a63:	66 90                	xchg   ax,ax
  100a65:	66 90                	xchg   ax,ax
  100a67:	66 90                	xchg   ax,ax
  100a69:	66 90                	xchg   ax,ax
  100a6b:	66 90                	xchg   ax,ax
  100a6d:	66 90                	xchg   ax,ax
  100a6f:	66 90                	xchg   ax,ax
  100a71:	66 90                	xchg   ax,ax
  100a73:	66 90                	xchg   ax,ax
  100a75:	66 90                	xchg   ax,ax
  100a77:	66 90                	xchg   ax,ax
  100a79:	66 90                	xchg   ax,ax
  100a7b:	66 90                	xchg   ax,ax
  100a7d:	66 90                	xchg   ax,ax
  100a7f:	66 90                	xchg   ax,ax
  100a81:	66 90                	xchg   ax,ax
  100a83:	66 90                	xchg   ax,ax
  100a85:	66 90                	xchg   ax,ax
  100a87:	66 90                	xchg   ax,ax
  100a89:	66 90                	xchg   ax,ax
  100a8b:	66 90                	xchg   ax,ax
  100a8d:	66 90                	xchg   ax,ax
  100a8f:	66 90                	xchg   ax,ax
  100a91:	66 90                	xchg   ax,ax
  100a93:	66 90                	xchg   ax,ax
  100a95:	66 90                	xchg   ax,ax
  100a97:	66 90                	xchg   ax,ax
  100a99:	66 90                	xchg   ax,ax
  100a9b:	66 90                	xchg   ax,ax
  100a9d:	66 90                	xchg   ax,ax
  100a9f:	66 90                	xchg   ax,ax
  100aa1:	66 90                	xchg   ax,ax
  100aa3:	66 90                	xchg   ax,ax
  100aa5:	66 90                	xchg   ax,ax
  100aa7:	66 90                	xchg   ax,ax
  100aa9:	66 90                	xchg   ax,ax
  100aab:	66 90                	xchg   ax,ax
  100aad:	66 90                	xchg   ax,ax
  100aaf:	66 90                	xchg   ax,ax
  100ab1:	66 90                	xchg   ax,ax
  100ab3:	66 90                	xchg   ax,ax
  100ab5:	66 90                	xchg   ax,ax
  100ab7:	66 90                	xchg   ax,ax
  100ab9:	66 90                	xchg   ax,ax
  100abb:	66 90                	xchg   ax,ax
  100abd:	66 90                	xchg   ax,ax
  100abf:	66 90                	xchg   ax,ax
  100ac1:	66 90                	xchg   ax,ax
  100ac3:	66 90                	xchg   ax,ax
  100ac5:	66 90                	xchg   ax,ax
  100ac7:	66 90                	xchg   ax,ax
  100ac9:	66 90                	xchg   ax,ax
  100acb:	66 90                	xchg   ax,ax
  100acd:	66 90                	xchg   ax,ax
  100acf:	66 90                	xchg   ax,ax
  100ad1:	66 90                	xchg   ax,ax
  100ad3:	66 90                	xchg   ax,ax
  100ad5:	66 90                	xchg   ax,ax
  100ad7:	66 90                	xchg   ax,ax
  100ad9:	66 90                	xchg   ax,ax
  100adb:	66 90                	xchg   ax,ax
  100add:	66 90                	xchg   ax,ax
  100adf:	66 90                	xchg   ax,ax
  100ae1:	66 90                	xchg   ax,ax
  100ae3:	66 90                	xchg   ax,ax
  100ae5:	66 90                	xchg   ax,ax
  100ae7:	66 90                	xchg   ax,ax
  100ae9:	66 90                	xchg   ax,ax
  100aeb:	66 90                	xchg   ax,ax
  100aed:	66 90                	xchg   ax,ax
  100aef:	66 90                	xchg   ax,ax
  100af1:	66 90                	xchg   ax,ax
  100af3:	66 90                	xchg   ax,ax
  100af5:	66 90                	xchg   ax,ax
  100af7:	66 90                	xchg   ax,ax
  100af9:	66 90                	xchg   ax,ax
  100afb:	66 90                	xchg   ax,ax
  100afd:	66 90                	xchg   ax,ax
  100aff:	66 90                	xchg   ax,ax
  100b01:	66 90                	xchg   ax,ax
  100b03:	66 90                	xchg   ax,ax
  100b05:	66 90                	xchg   ax,ax
  100b07:	66 90                	xchg   ax,ax
  100b09:	66 90                	xchg   ax,ax
  100b0b:	66 90                	xchg   ax,ax
  100b0d:	66 90                	xchg   ax,ax
  100b0f:	66 90                	xchg   ax,ax
  100b11:	66 90                	xchg   ax,ax
  100b13:	66 90                	xchg   ax,ax
  100b15:	66 90                	xchg   ax,ax
  100b17:	66 90                	xchg   ax,ax
  100b19:	66 90                	xchg   ax,ax
  100b1b:	66 90                	xchg   ax,ax
  100b1d:	66 90                	xchg   ax,ax
  100b1f:	66 90                	xchg   ax,ax
  100b21:	66 90                	xchg   ax,ax
  100b23:	66 90                	xchg   ax,ax
  100b25:	66 90                	xchg   ax,ax
  100b27:	66 90                	xchg   ax,ax
  100b29:	66 90                	xchg   ax,ax
  100b2b:	66 90                	xchg   ax,ax
  100b2d:	66 90                	xchg   ax,ax
  100b2f:	66 90                	xchg   ax,ax
  100b31:	66 90                	xchg   ax,ax
  100b33:	66 90                	xchg   ax,ax
  100b35:	66 90                	xchg   ax,ax
  100b37:	66 90                	xchg   ax,ax
  100b39:	66 90                	xchg   ax,ax
  100b3b:	66 90                	xchg   ax,ax
  100b3d:	66 90                	xchg   ax,ax
  100b3f:	66 90                	xchg   ax,ax
  100b41:	66 90                	xchg   ax,ax
  100b43:	66 90                	xchg   ax,ax
  100b45:	66 90                	xchg   ax,ax
  100b47:	66 90                	xchg   ax,ax
  100b49:	66 90                	xchg   ax,ax
  100b4b:	66 90                	xchg   ax,ax
  100b4d:	66 90                	xchg   ax,ax
  100b4f:	66 90                	xchg   ax,ax
  100b51:	66 90                	xchg   ax,ax
  100b53:	66 90                	xchg   ax,ax
  100b55:	66 90                	xchg   ax,ax
  100b57:	66 90                	xchg   ax,ax
  100b59:	66 90                	xchg   ax,ax
  100b5b:	66 90                	xchg   ax,ax
  100b5d:	66 90                	xchg   ax,ax
  100b5f:	66 90                	xchg   ax,ax
  100b61:	66 90                	xchg   ax,ax
  100b63:	66 90                	xchg   ax,ax
  100b65:	66 90                	xchg   ax,ax
  100b67:	66 90                	xchg   ax,ax
  100b69:	66 90                	xchg   ax,ax
  100b6b:	66 90                	xchg   ax,ax
  100b6d:	66 90                	xchg   ax,ax
  100b6f:	66 90                	xchg   ax,ax
  100b71:	66 90                	xchg   ax,ax
  100b73:	66 90                	xchg   ax,ax
  100b75:	66 90                	xchg   ax,ax
  100b77:	66 90                	xchg   ax,ax
  100b79:	66 90                	xchg   ax,ax
  100b7b:	66 90                	xchg   ax,ax
  100b7d:	66 90                	xchg   ax,ax
  100b7f:	66 90                	xchg   ax,ax
  100b81:	66 90                	xchg   ax,ax
  100b83:	66 90                	xchg   ax,ax
  100b85:	66 90                	xchg   ax,ax
  100b87:	66 90                	xchg   ax,ax
  100b89:	66 90                	xchg   ax,ax
  100b8b:	66 90                	xchg   ax,ax
  100b8d:	66 90                	xchg   ax,ax
  100b8f:	66 90                	xchg   ax,ax
  100b91:	66 90                	xchg   ax,ax
  100b93:	66 90                	xchg   ax,ax
  100b95:	66 90                	xchg   ax,ax
  100b97:	66 90                	xchg   ax,ax
  100b99:	66 90                	xchg   ax,ax
  100b9b:	66 90                	xchg   ax,ax
  100b9d:	66 90                	xchg   ax,ax
  100b9f:	66 90                	xchg   ax,ax
  100ba1:	66 90                	xchg   ax,ax
  100ba3:	66 90                	xchg   ax,ax
  100ba5:	66 90                	xchg   ax,ax
  100ba7:	66 90                	xchg   ax,ax
  100ba9:	66 90                	xchg   ax,ax
  100bab:	66 90                	xchg   ax,ax
  100bad:	66 90                	xchg   ax,ax
  100baf:	66 90                	xchg   ax,ax
  100bb1:	66 90                	xchg   ax,ax
  100bb3:	66 90                	xchg   ax,ax
  100bb5:	66 90                	xchg   ax,ax
  100bb7:	66 90                	xchg   ax,ax
  100bb9:	66 90                	xchg   ax,ax
  100bbb:	66 90                	xchg   ax,ax
  100bbd:	66 90                	xchg   ax,ax
  100bbf:	66 90                	xchg   ax,ax
  100bc1:	66 90                	xchg   ax,ax
  100bc3:	66 90                	xchg   ax,ax
  100bc5:	66 90                	xchg   ax,ax
  100bc7:	66 90                	xchg   ax,ax
  100bc9:	66 90                	xchg   ax,ax
  100bcb:	66 90                	xchg   ax,ax
  100bcd:	66 90                	xchg   ax,ax
  100bcf:	66 90                	xchg   ax,ax
  100bd1:	66 90                	xchg   ax,ax
  100bd3:	66 90                	xchg   ax,ax
  100bd5:	66 90                	xchg   ax,ax
  100bd7:	66 90                	xchg   ax,ax
  100bd9:	66 90                	xchg   ax,ax
  100bdb:	66 90                	xchg   ax,ax
  100bdd:	66 90                	xchg   ax,ax
  100bdf:	66 90                	xchg   ax,ax
  100be1:	66 90                	xchg   ax,ax
  100be3:	66 90                	xchg   ax,ax
  100be5:	66 90                	xchg   ax,ax
  100be7:	66 90                	xchg   ax,ax
  100be9:	66 90                	xchg   ax,ax
  100beb:	66 90                	xchg   ax,ax
  100bed:	66 90                	xchg   ax,ax
  100bef:	66 90                	xchg   ax,ax
  100bf1:	66 90                	xchg   ax,ax
  100bf3:	66 90                	xchg   ax,ax
  100bf5:	66 90                	xchg   ax,ax
  100bf7:	66 90                	xchg   ax,ax
  100bf9:	66 90                	xchg   ax,ax
  100bfb:	66 90                	xchg   ax,ax
  100bfd:	66 90                	xchg   ax,ax
  100bff:	66 90                	xchg   ax,ax
  100c01:	66 90                	xchg   ax,ax
  100c03:	66 90                	xchg   ax,ax
  100c05:	66 90                	xchg   ax,ax
  100c07:	66 90                	xchg   ax,ax
  100c09:	66 90                	xchg   ax,ax
  100c0b:	66 90                	xchg   ax,ax
  100c0d:	66 90                	xchg   ax,ax
  100c0f:	66 90                	xchg   ax,ax
  100c11:	66 90                	xchg   ax,ax
  100c13:	66 90                	xchg   ax,ax
  100c15:	66 90                	xchg   ax,ax
  100c17:	66 90                	xchg   ax,ax
  100c19:	66 90                	xchg   ax,ax
  100c1b:	66 90                	xchg   ax,ax
  100c1d:	66 90                	xchg   ax,ax
  100c1f:	66 90                	xchg   ax,ax
  100c21:	66 90                	xchg   ax,ax
  100c23:	66 90                	xchg   ax,ax
  100c25:	66 90                	xchg   ax,ax
  100c27:	66 90                	xchg   ax,ax
  100c29:	66 90                	xchg   ax,ax
  100c2b:	66 90                	xchg   ax,ax
  100c2d:	66 90                	xchg   ax,ax
  100c2f:	66 90                	xchg   ax,ax
  100c31:	66 90                	xchg   ax,ax
  100c33:	66 90                	xchg   ax,ax
  100c35:	66 90                	xchg   ax,ax
  100c37:	66 90                	xchg   ax,ax
  100c39:	66 90                	xchg   ax,ax
  100c3b:	66 90                	xchg   ax,ax
  100c3d:	66 90                	xchg   ax,ax
  100c3f:	66 90                	xchg   ax,ax
  100c41:	66 90                	xchg   ax,ax
  100c43:	66 90                	xchg   ax,ax
  100c45:	66 90                	xchg   ax,ax
  100c47:	66 90                	xchg   ax,ax
  100c49:	66 90                	xchg   ax,ax
  100c4b:	66 90                	xchg   ax,ax
  100c4d:	66 90                	xchg   ax,ax
  100c4f:	66 90                	xchg   ax,ax
  100c51:	66 90                	xchg   ax,ax
  100c53:	66 90                	xchg   ax,ax
  100c55:	66 90                	xchg   ax,ax
  100c57:	66 90                	xchg   ax,ax
  100c59:	66 90                	xchg   ax,ax
  100c5b:	66 90                	xchg   ax,ax
  100c5d:	66 90                	xchg   ax,ax
  100c5f:	66 90                	xchg   ax,ax
  100c61:	66 90                	xchg   ax,ax
  100c63:	66 90                	xchg   ax,ax
  100c65:	66 90                	xchg   ax,ax
  100c67:	66 90                	xchg   ax,ax
  100c69:	66 90                	xchg   ax,ax
  100c6b:	66 90                	xchg   ax,ax
  100c6d:	66 90                	xchg   ax,ax
  100c6f:	66 90                	xchg   ax,ax
  100c71:	66 90                	xchg   ax,ax
  100c73:	66 90                	xchg   ax,ax
  100c75:	66 90                	xchg   ax,ax
  100c77:	66 90                	xchg   ax,ax
  100c79:	66 90                	xchg   ax,ax
  100c7b:	66 90                	xchg   ax,ax
  100c7d:	66 90                	xchg   ax,ax
  100c7f:	66 90                	xchg   ax,ax
  100c81:	66 90                	xchg   ax,ax
  100c83:	66 90                	xchg   ax,ax
  100c85:	66 90                	xchg   ax,ax
  100c87:	66 90                	xchg   ax,ax
  100c89:	66 90                	xchg   ax,ax
  100c8b:	66 90                	xchg   ax,ax
  100c8d:	66 90                	xchg   ax,ax
  100c8f:	66 90                	xchg   ax,ax
  100c91:	66 90                	xchg   ax,ax
  100c93:	66 90                	xchg   ax,ax
  100c95:	66 90                	xchg   ax,ax
  100c97:	66 90                	xchg   ax,ax
  100c99:	66 90                	xchg   ax,ax
  100c9b:	66 90                	xchg   ax,ax
  100c9d:	66 90                	xchg   ax,ax
  100c9f:	66 90                	xchg   ax,ax
  100ca1:	66 90                	xchg   ax,ax
  100ca3:	66 90                	xchg   ax,ax
  100ca5:	66 90                	xchg   ax,ax
  100ca7:	66 90                	xchg   ax,ax
  100ca9:	66 90                	xchg   ax,ax
  100cab:	66 90                	xchg   ax,ax
  100cad:	66 90                	xchg   ax,ax
  100caf:	66 90                	xchg   ax,ax
  100cb1:	66 90                	xchg   ax,ax
  100cb3:	66 90                	xchg   ax,ax
  100cb5:	66 90                	xchg   ax,ax
  100cb7:	66 90                	xchg   ax,ax
  100cb9:	66 90                	xchg   ax,ax
  100cbb:	66 90                	xchg   ax,ax
  100cbd:	66 90                	xchg   ax,ax
  100cbf:	66 90                	xchg   ax,ax
  100cc1:	66 90                	xchg   ax,ax
  100cc3:	66 90                	xchg   ax,ax
  100cc5:	66 90                	xchg   ax,ax
  100cc7:	66 90                	xchg   ax,ax
  100cc9:	66 90                	xchg   ax,ax
  100ccb:	66 90                	xchg   ax,ax
  100ccd:	66 90                	xchg   ax,ax
  100ccf:	66 90                	xchg   ax,ax
  100cd1:	66 90                	xchg   ax,ax
  100cd3:	66 90                	xchg   ax,ax
  100cd5:	66 90                	xchg   ax,ax
  100cd7:	66 90                	xchg   ax,ax
  100cd9:	66 90                	xchg   ax,ax
  100cdb:	66 90                	xchg   ax,ax
  100cdd:	66 90                	xchg   ax,ax
  100cdf:	66 90                	xchg   ax,ax
  100ce1:	66 90                	xchg   ax,ax
  100ce3:	66 90                	xchg   ax,ax
  100ce5:	66 90                	xchg   ax,ax
  100ce7:	66 90                	xchg   ax,ax
  100ce9:	66 90                	xchg   ax,ax
  100ceb:	66 90                	xchg   ax,ax
  100ced:	66 90                	xchg   ax,ax
  100cef:	66 90                	xchg   ax,ax
  100cf1:	66 90                	xchg   ax,ax
  100cf3:	66 90                	xchg   ax,ax
  100cf5:	66 90                	xchg   ax,ax
  100cf7:	66 90                	xchg   ax,ax
  100cf9:	66 90                	xchg   ax,ax
  100cfb:	66 90                	xchg   ax,ax
  100cfd:	66 90                	xchg   ax,ax
  100cff:	66 90                	xchg   ax,ax
  100d01:	66 90                	xchg   ax,ax
  100d03:	66 90                	xchg   ax,ax
  100d05:	66 90                	xchg   ax,ax
  100d07:	66 90                	xchg   ax,ax
  100d09:	66 90                	xchg   ax,ax
  100d0b:	66 90                	xchg   ax,ax
  100d0d:	66 90                	xchg   ax,ax
  100d0f:	66 90                	xchg   ax,ax
  100d11:	66 90                	xchg   ax,ax
  100d13:	66 90                	xchg   ax,ax
  100d15:	66 90                	xchg   ax,ax
  100d17:	66 90                	xchg   ax,ax
  100d19:	66 90                	xchg   ax,ax
  100d1b:	66 90                	xchg   ax,ax
  100d1d:	66 90                	xchg   ax,ax
  100d1f:	66 90                	xchg   ax,ax
  100d21:	66 90                	xchg   ax,ax
  100d23:	66 90                	xchg   ax,ax
  100d25:	66 90                	xchg   ax,ax
  100d27:	66 90                	xchg   ax,ax
  100d29:	66 90                	xchg   ax,ax
  100d2b:	66 90                	xchg   ax,ax
  100d2d:	66 90                	xchg   ax,ax
  100d2f:	66 90                	xchg   ax,ax
  100d31:	66 90                	xchg   ax,ax
  100d33:	66 90                	xchg   ax,ax
  100d35:	66 90                	xchg   ax,ax
  100d37:	66 90                	xchg   ax,ax
  100d39:	66 90                	xchg   ax,ax
  100d3b:	66 90                	xchg   ax,ax
  100d3d:	66 90                	xchg   ax,ax
  100d3f:	66 90                	xchg   ax,ax
  100d41:	66 90                	xchg   ax,ax
  100d43:	66 90                	xchg   ax,ax
  100d45:	66 90                	xchg   ax,ax
  100d47:	66 90                	xchg   ax,ax
  100d49:	66 90                	xchg   ax,ax
  100d4b:	66 90                	xchg   ax,ax
  100d4d:	66 90                	xchg   ax,ax
  100d4f:	66 90                	xchg   ax,ax
  100d51:	66 90                	xchg   ax,ax
  100d53:	66 90                	xchg   ax,ax
  100d55:	66 90                	xchg   ax,ax
  100d57:	66 90                	xchg   ax,ax
  100d59:	66 90                	xchg   ax,ax
  100d5b:	66 90                	xchg   ax,ax
  100d5d:	66 90                	xchg   ax,ax
  100d5f:	66 90                	xchg   ax,ax
  100d61:	66 90                	xchg   ax,ax
  100d63:	66 90                	xchg   ax,ax
  100d65:	66 90                	xchg   ax,ax
  100d67:	66 90                	xchg   ax,ax
  100d69:	66 90                	xchg   ax,ax
  100d6b:	66 90                	xchg   ax,ax
  100d6d:	66 90                	xchg   ax,ax
  100d6f:	66 90                	xchg   ax,ax
  100d71:	66 90                	xchg   ax,ax
  100d73:	66 90                	xchg   ax,ax
  100d75:	66 90                	xchg   ax,ax
  100d77:	66 90                	xchg   ax,ax
  100d79:	66 90                	xchg   ax,ax
  100d7b:	66 90                	xchg   ax,ax
  100d7d:	66 90                	xchg   ax,ax
  100d7f:	66 90                	xchg   ax,ax
  100d81:	66 90                	xchg   ax,ax
  100d83:	66 90                	xchg   ax,ax
  100d85:	66 90                	xchg   ax,ax
  100d87:	66 90                	xchg   ax,ax
  100d89:	66 90                	xchg   ax,ax
  100d8b:	66 90                	xchg   ax,ax
  100d8d:	66 90                	xchg   ax,ax
  100d8f:	66 90                	xchg   ax,ax
  100d91:	66 90                	xchg   ax,ax
  100d93:	66 90                	xchg   ax,ax
  100d95:	66 90                	xchg   ax,ax
  100d97:	66 90                	xchg   ax,ax
  100d99:	66 90                	xchg   ax,ax
  100d9b:	66 90                	xchg   ax,ax
  100d9d:	66 90                	xchg   ax,ax
  100d9f:	66 90                	xchg   ax,ax
  100da1:	66 90                	xchg   ax,ax
  100da3:	66 90                	xchg   ax,ax
  100da5:	66 90                	xchg   ax,ax
  100da7:	66 90                	xchg   ax,ax
  100da9:	66 90                	xchg   ax,ax
  100dab:	66 90                	xchg   ax,ax
  100dad:	66 90                	xchg   ax,ax
  100daf:	66 90                	xchg   ax,ax
  100db1:	66 90                	xchg   ax,ax
  100db3:	66 90                	xchg   ax,ax
  100db5:	66 90                	xchg   ax,ax
  100db7:	66 90                	xchg   ax,ax
  100db9:	66 90                	xchg   ax,ax
  100dbb:	66 90                	xchg   ax,ax
  100dbd:	66 90                	xchg   ax,ax
  100dbf:	66 90                	xchg   ax,ax
  100dc1:	66 90                	xchg   ax,ax
  100dc3:	66 90                	xchg   ax,ax
  100dc5:	66 90                	xchg   ax,ax
  100dc7:	66 90                	xchg   ax,ax
  100dc9:	66 90                	xchg   ax,ax
  100dcb:	66 90                	xchg   ax,ax
  100dcd:	66 90                	xchg   ax,ax
  100dcf:	66 90                	xchg   ax,ax
  100dd1:	66 90                	xchg   ax,ax
  100dd3:	66 90                	xchg   ax,ax
  100dd5:	66 90                	xchg   ax,ax
  100dd7:	66 90                	xchg   ax,ax
  100dd9:	66 90                	xchg   ax,ax
  100ddb:	66 90                	xchg   ax,ax
  100ddd:	66 90                	xchg   ax,ax
  100ddf:	66 90                	xchg   ax,ax
  100de1:	66 90                	xchg   ax,ax
  100de3:	66 90                	xchg   ax,ax
  100de5:	66 90                	xchg   ax,ax
  100de7:	66 90                	xchg   ax,ax
  100de9:	66 90                	xchg   ax,ax
  100deb:	66 90                	xchg   ax,ax
  100ded:	66 90                	xchg   ax,ax
  100def:	66 90                	xchg   ax,ax
  100df1:	66 90                	xchg   ax,ax
  100df3:	66 90                	xchg   ax,ax
  100df5:	66 90                	xchg   ax,ax
  100df7:	66 90                	xchg   ax,ax
  100df9:	66 90                	xchg   ax,ax
  100dfb:	66 90                	xchg   ax,ax
  100dfd:	66 90                	xchg   ax,ax
  100dff:	66 90                	xchg   ax,ax
  100e01:	66 90                	xchg   ax,ax
  100e03:	66 90                	xchg   ax,ax
  100e05:	66 90                	xchg   ax,ax
  100e07:	66 90                	xchg   ax,ax
  100e09:	66 90                	xchg   ax,ax
  100e0b:	66 90                	xchg   ax,ax
  100e0d:	66 90                	xchg   ax,ax
  100e0f:	66 90                	xchg   ax,ax
  100e11:	66 90                	xchg   ax,ax
  100e13:	66 90                	xchg   ax,ax
  100e15:	66 90                	xchg   ax,ax
  100e17:	66 90                	xchg   ax,ax
  100e19:	66 90                	xchg   ax,ax
  100e1b:	66 90                	xchg   ax,ax
  100e1d:	66 90                	xchg   ax,ax
  100e1f:	66 90                	xchg   ax,ax
  100e21:	66 90                	xchg   ax,ax
  100e23:	66 90                	xchg   ax,ax
  100e25:	66 90                	xchg   ax,ax
  100e27:	66 90                	xchg   ax,ax
  100e29:	66 90                	xchg   ax,ax
  100e2b:	66 90                	xchg   ax,ax
  100e2d:	66 90                	xchg   ax,ax
  100e2f:	66 90                	xchg   ax,ax
  100e31:	66 90                	xchg   ax,ax
  100e33:	66 90                	xchg   ax,ax
  100e35:	66 90                	xchg   ax,ax
  100e37:	66 90                	xchg   ax,ax
  100e39:	66 90                	xchg   ax,ax
  100e3b:	66 90                	xchg   ax,ax
  100e3d:	66 90                	xchg   ax,ax
  100e3f:	66 90                	xchg   ax,ax
  100e41:	66 90                	xchg   ax,ax
  100e43:	66 90                	xchg   ax,ax
  100e45:	66 90                	xchg   ax,ax
  100e47:	66 90                	xchg   ax,ax
  100e49:	66 90                	xchg   ax,ax
  100e4b:	66 90                	xchg   ax,ax
  100e4d:	66 90                	xchg   ax,ax
  100e4f:	66 90                	xchg   ax,ax
  100e51:	66 90                	xchg   ax,ax
  100e53:	66 90                	xchg   ax,ax
  100e55:	66 90                	xchg   ax,ax
  100e57:	66 90                	xchg   ax,ax
  100e59:	66 90                	xchg   ax,ax
  100e5b:	66 90                	xchg   ax,ax
  100e5d:	66 90                	xchg   ax,ax
  100e5f:	66 90                	xchg   ax,ax
  100e61:	66 90                	xchg   ax,ax
  100e63:	66 90                	xchg   ax,ax
  100e65:	66 90                	xchg   ax,ax
  100e67:	66 90                	xchg   ax,ax
  100e69:	66 90                	xchg   ax,ax
  100e6b:	66 90                	xchg   ax,ax
  100e6d:	66 90                	xchg   ax,ax
  100e6f:	66 90                	xchg   ax,ax
  100e71:	66 90                	xchg   ax,ax
  100e73:	66 90                	xchg   ax,ax
  100e75:	66 90                	xchg   ax,ax
  100e77:	66 90                	xchg   ax,ax
  100e79:	66 90                	xchg   ax,ax
  100e7b:	66 90                	xchg   ax,ax
  100e7d:	66 90                	xchg   ax,ax
  100e7f:	66 90                	xchg   ax,ax
  100e81:	66 90                	xchg   ax,ax
  100e83:	66 90                	xchg   ax,ax
  100e85:	66 90                	xchg   ax,ax
  100e87:	66 90                	xchg   ax,ax
  100e89:	66 90                	xchg   ax,ax
  100e8b:	66 90                	xchg   ax,ax
  100e8d:	66 90                	xchg   ax,ax
  100e8f:	66 90                	xchg   ax,ax
  100e91:	66 90                	xchg   ax,ax
  100e93:	66 90                	xchg   ax,ax
  100e95:	66 90                	xchg   ax,ax
  100e97:	66 90                	xchg   ax,ax
  100e99:	66 90                	xchg   ax,ax
  100e9b:	66 90                	xchg   ax,ax
  100e9d:	66 90                	xchg   ax,ax
  100e9f:	66 90                	xchg   ax,ax
  100ea1:	66 90                	xchg   ax,ax
  100ea3:	66 90                	xchg   ax,ax
  100ea5:	66 90                	xchg   ax,ax
  100ea7:	66 90                	xchg   ax,ax
  100ea9:	66 90                	xchg   ax,ax
  100eab:	66 90                	xchg   ax,ax
  100ead:	66 90                	xchg   ax,ax
  100eaf:	66 90                	xchg   ax,ax
  100eb1:	66 90                	xchg   ax,ax
  100eb3:	66 90                	xchg   ax,ax
  100eb5:	66 90                	xchg   ax,ax
  100eb7:	66 90                	xchg   ax,ax
  100eb9:	66 90                	xchg   ax,ax
  100ebb:	66 90                	xchg   ax,ax
  100ebd:	66 90                	xchg   ax,ax
  100ebf:	66 90                	xchg   ax,ax
  100ec1:	66 90                	xchg   ax,ax
  100ec3:	66 90                	xchg   ax,ax
  100ec5:	66 90                	xchg   ax,ax
  100ec7:	66 90                	xchg   ax,ax
  100ec9:	66 90                	xchg   ax,ax
  100ecb:	66 90                	xchg   ax,ax
  100ecd:	66 90                	xchg   ax,ax
  100ecf:	66 90                	xchg   ax,ax
  100ed1:	66 90                	xchg   ax,ax
  100ed3:	66 90                	xchg   ax,ax
  100ed5:	66 90                	xchg   ax,ax
  100ed7:	66 90                	xchg   ax,ax
  100ed9:	66 90                	xchg   ax,ax
  100edb:	66 90                	xchg   ax,ax
  100edd:	66 90                	xchg   ax,ax
  100edf:	66 90                	xchg   ax,ax
  100ee1:	66 90                	xchg   ax,ax
  100ee3:	66 90                	xchg   ax,ax
  100ee5:	66 90                	xchg   ax,ax
  100ee7:	66 90                	xchg   ax,ax
  100ee9:	66 90                	xchg   ax,ax
  100eeb:	66 90                	xchg   ax,ax
  100eed:	66 90                	xchg   ax,ax
  100eef:	66 90                	xchg   ax,ax
  100ef1:	66 90                	xchg   ax,ax
  100ef3:	66 90                	xchg   ax,ax
  100ef5:	66 90                	xchg   ax,ax
  100ef7:	66 90                	xchg   ax,ax
  100ef9:	66 90                	xchg   ax,ax
  100efb:	66 90                	xchg   ax,ax
  100efd:	66 90                	xchg   ax,ax
  100eff:	66 90                	xchg   ax,ax
  100f01:	66 90                	xchg   ax,ax
  100f03:	66 90                	xchg   ax,ax
  100f05:	66 90                	xchg   ax,ax
  100f07:	66 90                	xchg   ax,ax
  100f09:	66 90                	xchg   ax,ax
  100f0b:	66 90                	xchg   ax,ax
  100f0d:	66 90                	xchg   ax,ax
  100f0f:	66 90                	xchg   ax,ax
  100f11:	66 90                	xchg   ax,ax
  100f13:	66 90                	xchg   ax,ax
  100f15:	66 90                	xchg   ax,ax
  100f17:	66 90                	xchg   ax,ax
  100f19:	66 90                	xchg   ax,ax
  100f1b:	66 90                	xchg   ax,ax
  100f1d:	66 90                	xchg   ax,ax
  100f1f:	66 90                	xchg   ax,ax
  100f21:	66 90                	xchg   ax,ax
  100f23:	66 90                	xchg   ax,ax
  100f25:	66 90                	xchg   ax,ax
  100f27:	66 90                	xchg   ax,ax
  100f29:	66 90                	xchg   ax,ax
  100f2b:	66 90                	xchg   ax,ax
  100f2d:	66 90                	xchg   ax,ax
  100f2f:	66 90                	xchg   ax,ax
  100f31:	66 90                	xchg   ax,ax
  100f33:	66 90                	xchg   ax,ax
  100f35:	66 90                	xchg   ax,ax
  100f37:	66 90                	xchg   ax,ax
  100f39:	66 90                	xchg   ax,ax
  100f3b:	66 90                	xchg   ax,ax
  100f3d:	66 90                	xchg   ax,ax
  100f3f:	66 90                	xchg   ax,ax
  100f41:	66 90                	xchg   ax,ax
  100f43:	66 90                	xchg   ax,ax
  100f45:	66 90                	xchg   ax,ax
  100f47:	66 90                	xchg   ax,ax
  100f49:	66 90                	xchg   ax,ax
  100f4b:	66 90                	xchg   ax,ax
  100f4d:	66 90                	xchg   ax,ax
  100f4f:	66 90                	xchg   ax,ax
  100f51:	66 90                	xchg   ax,ax
  100f53:	66 90                	xchg   ax,ax
  100f55:	66 90                	xchg   ax,ax
  100f57:	66 90                	xchg   ax,ax
  100f59:	66 90                	xchg   ax,ax
  100f5b:	66 90                	xchg   ax,ax
  100f5d:	66 90                	xchg   ax,ax
  100f5f:	66 90                	xchg   ax,ax
  100f61:	66 90                	xchg   ax,ax
  100f63:	66 90                	xchg   ax,ax
  100f65:	66 90                	xchg   ax,ax
  100f67:	66 90                	xchg   ax,ax
  100f69:	66 90                	xchg   ax,ax
  100f6b:	66 90                	xchg   ax,ax
  100f6d:	66 90                	xchg   ax,ax
  100f6f:	66 90                	xchg   ax,ax
  100f71:	66 90                	xchg   ax,ax
  100f73:	66 90                	xchg   ax,ax
  100f75:	66 90                	xchg   ax,ax
  100f77:	66 90                	xchg   ax,ax
  100f79:	66 90                	xchg   ax,ax
  100f7b:	66 90                	xchg   ax,ax
  100f7d:	66 90                	xchg   ax,ax
  100f7f:	66 90                	xchg   ax,ax
  100f81:	66 90                	xchg   ax,ax
  100f83:	66 90                	xchg   ax,ax
  100f85:	66 90                	xchg   ax,ax
  100f87:	66 90                	xchg   ax,ax
  100f89:	66 90                	xchg   ax,ax
  100f8b:	66 90                	xchg   ax,ax
  100f8d:	66 90                	xchg   ax,ax
  100f8f:	66 90                	xchg   ax,ax
  100f91:	66 90                	xchg   ax,ax
  100f93:	66 90                	xchg   ax,ax
  100f95:	66 90                	xchg   ax,ax
  100f97:	66 90                	xchg   ax,ax
  100f99:	66 90                	xchg   ax,ax
  100f9b:	66 90                	xchg   ax,ax
  100f9d:	66 90                	xchg   ax,ax
  100f9f:	66 90                	xchg   ax,ax
  100fa1:	66 90                	xchg   ax,ax
  100fa3:	66 90                	xchg   ax,ax
  100fa5:	66 90                	xchg   ax,ax
  100fa7:	66 90                	xchg   ax,ax
  100fa9:	66 90                	xchg   ax,ax
  100fab:	66 90                	xchg   ax,ax
  100fad:	66 90                	xchg   ax,ax
  100faf:	66 90                	xchg   ax,ax
  100fb1:	66 90                	xchg   ax,ax
  100fb3:	66 90                	xchg   ax,ax
  100fb5:	66 90                	xchg   ax,ax
  100fb7:	66 90                	xchg   ax,ax
  100fb9:	66 90                	xchg   ax,ax
  100fbb:	66 90                	xchg   ax,ax
  100fbd:	66 90                	xchg   ax,ax
  100fbf:	66 90                	xchg   ax,ax
  100fc1:	66 90                	xchg   ax,ax
  100fc3:	66 90                	xchg   ax,ax
  100fc5:	66 90                	xchg   ax,ax
  100fc7:	66 90                	xchg   ax,ax
  100fc9:	66 90                	xchg   ax,ax
  100fcb:	66 90                	xchg   ax,ax
  100fcd:	66 90                	xchg   ax,ax
  100fcf:	66 90                	xchg   ax,ax
  100fd1:	66 90                	xchg   ax,ax
  100fd3:	66 90                	xchg   ax,ax
  100fd5:	66 90                	xchg   ax,ax
  100fd7:	66 90                	xchg   ax,ax
  100fd9:	66 90                	xchg   ax,ax
  100fdb:	66 90                	xchg   ax,ax
  100fdd:	66 90                	xchg   ax,ax
  100fdf:	66 90                	xchg   ax,ax
  100fe1:	66 90                	xchg   ax,ax
  100fe3:	66 90                	xchg   ax,ax
  100fe5:	66 90                	xchg   ax,ax
  100fe7:	66 90                	xchg   ax,ax
  100fe9:	66 90                	xchg   ax,ax
  100feb:	66 90                	xchg   ax,ax
  100fed:	66 90                	xchg   ax,ax
  100fef:	66 90                	xchg   ax,ax
  100ff1:	66 90                	xchg   ax,ax
  100ff3:	66 90                	xchg   ax,ax
  100ff5:	66 90                	xchg   ax,ax
  100ff7:	66 90                	xchg   ax,ax
  100ff9:	66 90                	xchg   ax,ax
  100ffb:	66 90                	xchg   ax,ax
  100ffd:	66 90                	xchg   ax,ax
  100fff:	90                   	nop

Disassembly of section .text:

c0102000 <switch_to>:
c0102000:	8b 44 24 04          	mov    eax,DWORD PTR [esp+0x4]
c0102004:	89 20                	mov    DWORD PTR [eax],esp
c0102006:	89 68 04             	mov    DWORD PTR [eax+0x4],ebp
c0102009:	89 58 08             	mov    DWORD PTR [eax+0x8],ebx
c010200c:	89 70 0c             	mov    DWORD PTR [eax+0xc],esi
c010200f:	89 78 10             	mov    DWORD PTR [eax+0x10],edi
c0102012:	9c                   	pushf  
c0102013:	59                   	pop    ecx
c0102014:	89 48 14             	mov    DWORD PTR [eax+0x14],ecx
c0102017:	8b 44 24 08          	mov    eax,DWORD PTR [esp+0x8]
c010201b:	8b 20                	mov    esp,DWORD PTR [eax]
c010201d:	8b 68 04             	mov    ebp,DWORD PTR [eax+0x4]
c0102020:	8b 58 08             	mov    ebx,DWORD PTR [eax+0x8]
c0102023:	8b 70 0c             	mov    esi,DWORD PTR [eax+0xc]
c0102026:	8b 78 10             	mov    edi,DWORD PTR [eax+0x10]
c0102029:	8b 40 14             	mov    eax,DWORD PTR [eax+0x14]
c010202c:	50                   	push   eax
c010202d:	9d                   	popf   
c010202e:	c3                   	ret    
c010202f:	90                   	nop

c0102030 <tss_flush>:
c0102030:	66 b8 2b 00          	mov    ax,0x2b
c0102034:	0f 00 d8             	ltr    ax
c0102037:	c3                   	ret    
c0102038:	66 90                	xchg   ax,ax
c010203a:	66 90                	xchg   ax,ax
c010203c:	66 90                	xchg   ax,ax
c010203e:	66 90                	xchg   ax,ax

c0102040 <gdt_flush>:
c0102040:	8b 44 24 04          	mov    eax,DWORD PTR [esp+0x4]
c0102044:	0f 01 10             	lgdtd  [eax]
c0102047:	66 b8 10 00          	mov    ax,0x10
c010204b:	8e d8                	mov    ds,eax
c010204d:	8e c0                	mov    es,eax
c010204f:	8e e0                	mov    fs,eax
c0102051:	8e e8                	mov    gs,eax
c0102053:	8e d0                	mov    ss,eax
c0102055:	ea 5c 20 10 c0 08 00 	jmp    0x8:0xc010205c

c010205c <gdt_flush.flush>:
c010205c:	c3                   	ret    
c010205d:	66 90                	xchg   ax,ax
c010205f:	90                   	nop

c0102060 <idt_flush>:
c0102060:	8b 44 24 04          	mov    eax,DWORD PTR [esp+0x4]
c0102064:	0f 01 18             	lidtd  [eax]
c0102067:	c3                   	ret    

c0102068 <isr0>:
c0102068:	fa                   	cli    
c0102069:	6a 00                	push   0x0
c010206b:	6a 00                	push   0x0
c010206d:	e9 fc 00 00 00       	jmp    c010216e <isr_common_stub>

c0102072 <isr1>:
c0102072:	fa                   	cli    
c0102073:	6a 00                	push   0x0
c0102075:	6a 01                	push   0x1
c0102077:	e9 f2 00 00 00       	jmp    c010216e <isr_common_stub>

c010207c <isr2>:
c010207c:	fa                   	cli    
c010207d:	6a 00                	push   0x0
c010207f:	6a 02                	push   0x2
c0102081:	e9 e8 00 00 00       	jmp    c010216e <isr_common_stub>

c0102086 <isr3>:
c0102086:	fa                   	cli    
c0102087:	6a 00                	push   0x0
c0102089:	6a 03                	push   0x3
c010208b:	e9 de 00 00 00       	jmp    c010216e <isr_common_stub>

c0102090 <isr4>:
c0102090:	fa                   	cli    
c0102091:	6a 00                	push   0x0
c0102093:	6a 04                	push   0x4
c0102095:	e9 d4 00 00 00       	jmp    c010216e <isr_common_stub>

c010209a <isr5>:
c010209a:	fa                   	cli    
c010209b:	6a 00                	push   0x0
c010209d:	6a 05                	push   0x5
c010209f:	e9 ca 00 00 00       	jmp    c010216e <isr_common_stub>

c01020a4 <isr6>:
c01020a4:	fa                   	cli    
c01020a5:	6a 00                	push   0x0
c01020a7:	6a 06                	push   0x6
c01020a9:	e9 c0 00 00 00       	jmp    c010216e <isr_common_stub>

c01020ae <isr7>:
c01020ae:	fa                   	cli    
c01020af:	6a 00                	push   0x0
c01020b1:	6a 07                	push   0x7
c01020b3:	e9 b6 00 00 00       	jmp    c010216e <isr_common_stub>

c01020b8 <isr8>:
c01020b8:	fa                   	cli    
c01020b9:	6a 08                	push   0x8
c01020bb:	e9 ae 00 00 00       	jmp    c010216e <isr_common_stub>

c01020c0 <isr9>:
c01020c0:	fa                   	cli    
c01020c1:	6a 00                	push   0x0
c01020c3:	6a 09                	push   0x9
c01020c5:	e9 a4 00 00 00       	jmp    c010216e <isr_common_stub>

c01020ca <isr10>:
c01020ca:	fa                   	cli    
c01020cb:	6a 0a                	push   0xa
c01020cd:	e9 9c 00 00 00       	jmp    c010216e <isr_common_stub>

c01020d2 <isr11>:
c01020d2:	fa                   	cli    
c01020d3:	6a 0b                	push   0xb
c01020d5:	e9 94 00 00 00       	jmp    c010216e <isr_common_stub>

c01020da <isr12>:
c01020da:	fa                   	cli    
c01020db:	6a 0c                	push   0xc
c01020dd:	e9 8c 00 00 00       	jmp    c010216e <isr_common_stub>

c01020e2 <isr13>:
c01020e2:	fa                   	cli    
c01020e3:	6a 0d                	push   0xd
c01020e5:	e9 84 00 00 00       	jmp    c010216e <isr_common_stub>

c01020ea <isr14>:
c01020ea:	fa                   	cli    
c01020eb:	6a 0e                	push   0xe
c01020ed:	eb 7f                	jmp    c010216e <isr_common_stub>

c01020ef <isr15>:
c01020ef:	fa                   	cli    
c01020f0:	6a 00                	push   0x0
c01020f2:	6a 0f                	push   0xf
c01020f4:	eb 78                	jmp    c010216e <isr_common_stub>

c01020f6 <isr16>:
c01020f6:	fa                   	cli    
c01020f7:	6a 00                	push   0x0
c01020f9:	6a 10                	push   0x10
c01020fb:	eb 71                	jmp    c010216e <isr_common_stub>

c01020fd <isr17>:
c01020fd:	fa                   	cli    
c01020fe:	6a 11                	push   0x11
c0102100:	eb 6c                	jmp    c010216e <isr_common_stub>

c0102102 <isr18>:
c0102102:	fa                   	cli    
c0102103:	6a 00                	push   0x0
c0102105:	6a 12                	push   0x12
c0102107:	eb 65                	jmp    c010216e <isr_common_stub>

c0102109 <isr19>:
c0102109:	fa                   	cli    
c010210a:	6a 00                	push   0x0
c010210c:	6a 13                	push   0x13
c010210e:	eb 5e                	jmp    c010216e <isr_common_stub>

c0102110 <isr20>:
c0102110:	fa                   	cli    
c0102111:	6a 00                	push   0x0
c0102113:	6a 14                	push   0x14
c0102115:	eb 57                	jmp    c010216e <isr_common_stub>

c0102117 <isr21>:
c0102117:	fa                   	cli    
c0102118:	6a 00                	push   0x0
c010211a:	6a 15                	push   0x15
c010211c:	eb 50                	jmp    c010216e <isr_common_stub>

c010211e <isr22>:
c010211e:	fa                   	cli    
c010211f:	6a 00                	push   0x0
c0102121:	6a 16                	push   0x16
c0102123:	eb 49                	jmp    c010216e <isr_common_stub>

c0102125 <isr23>:
c0102125:	fa                   	cli    
c0102126:	6a 00                	push   0x0
c0102128:	6a 17                	push   0x17
c010212a:	eb 42                	jmp    c010216e <isr_common_stub>

c010212c <isr24>:
c010212c:	fa                   	cli    
c010212d:	6a 00                	push   0x0
c010212f:	6a 18                	push   0x18
c0102131:	eb 3b                	jmp    c010216e <isr_common_stub>

c0102133 <isr25>:
c0102133:	fa                   	cli    
c0102134:	6a 00                	push   0x0
c0102136:	6a 19                	push   0x19
c0102138:	eb 34                	jmp    c010216e <isr_common_stub>

c010213a <isr26>:
c010213a:	fa                   	cli    
c010213b:	6a 00                	push   0x0
c010213d:	6a 1a                	push   0x1a
c010213f:	eb 2d                	jmp    c010216e <isr_common_stub>

c0102141 <isr27>:
c0102141:	fa                   	cli    
c0102142:	6a 00                	push   0x0
c0102144:	6a 1b                	push   0x1b
c0102146:	eb 26                	jmp    c010216e <isr_common_stub>

c0102148 <isr28>:
c0102148:	fa                   	cli    
c0102149:	6a 00                	push   0x0
c010214b:	6a 1c                	push   0x1c
c010214d:	eb 1f                	jmp    c010216e <isr_common_stub>

c010214f <isr29>:
c010214f:	fa                   	cli    
c0102150:	6a 00                	push   0x0
c0102152:	6a 1d                	push   0x1d
c0102154:	eb 18                	jmp    c010216e <isr_common_stub>

c0102156 <isr30>:
c0102156:	fa                   	cli    
c0102157:	6a 00                	push   0x0
c0102159:	6a 1e                	push   0x1e
c010215b:	eb 11                	jmp    c010216e <isr_common_stub>

c010215d <isr31>:
c010215d:	fa                   	cli    
c010215e:	6a 00                	push   0x0
c0102160:	6a 1f                	push   0x1f
c0102162:	eb 0a                	jmp    c010216e <isr_common_stub>

c0102164 <isr255>:
c0102164:	fa                   	cli    
c0102165:	6a 00                	push   0x0
c0102167:	68 ff 00 00 00       	push   0xff
c010216c:	eb 00                	jmp    c010216e <isr_common_stub>

c010216e <isr_common_stub>:
c010216e:	60                   	pusha  
c010216f:	66 8c d8             	mov    ax,ds
c0102172:	50                   	push   eax
c0102173:	66 b8 10 00          	mov    ax,0x10
c0102177:	8e d8                	mov    ds,eax
c0102179:	8e c0                	mov    es,eax
c010217b:	8e e0                	mov    fs,eax
c010217d:	8e e8                	mov    gs,eax
c010217f:	8e d0                	mov    ss,eax
c0102181:	54                   	push   esp
c0102182:	e8 f5 1e 00 00       	call   c010407c <isr_handler>
c0102187:	83 c4 04             	add    esp,0x4
c010218a:	5b                   	pop    ebx
c010218b:	8e db                	mov    ds,ebx
c010218d:	8e c3                	mov    es,ebx
c010218f:	8e e3                	mov    fs,ebx
c0102191:	8e eb                	mov    gs,ebx
c0102193:	8e d3                	mov    ss,ebx
c0102195:	61                   	popa   
c0102196:	83 c4 08             	add    esp,0x8
c0102199:	cf                   	iret   

c010219a <irq0>:
c010219a:	fa                   	cli    
c010219b:	6a 00                	push   0x0
c010219d:	6a 20                	push   0x20
c010219f:	eb 69                	jmp    c010220a <irq_common_stub>

c01021a1 <irq1>:
c01021a1:	fa                   	cli    
c01021a2:	6a 00                	push   0x0
c01021a4:	6a 21                	push   0x21
c01021a6:	eb 62                	jmp    c010220a <irq_common_stub>

c01021a8 <irq2>:
c01021a8:	fa                   	cli    
c01021a9:	6a 00                	push   0x0
c01021ab:	6a 22                	push   0x22
c01021ad:	eb 5b                	jmp    c010220a <irq_common_stub>

c01021af <irq3>:
c01021af:	fa                   	cli    
c01021b0:	6a 00                	push   0x0
c01021b2:	6a 23                	push   0x23
c01021b4:	eb 54                	jmp    c010220a <irq_common_stub>

c01021b6 <irq4>:
c01021b6:	fa                   	cli    
c01021b7:	6a 00                	push   0x0
c01021b9:	6a 24                	push   0x24
c01021bb:	eb 4d                	jmp    c010220a <irq_common_stub>

c01021bd <irq5>:
c01021bd:	fa                   	cli    
c01021be:	6a 00                	push   0x0
c01021c0:	6a 25                	push   0x25
c01021c2:	eb 46                	jmp    c010220a <irq_common_stub>

c01021c4 <irq6>:
c01021c4:	fa                   	cli    
c01021c5:	6a 00                	push   0x0
c01021c7:	6a 26                	push   0x26
c01021c9:	eb 3f                	jmp    c010220a <irq_common_stub>

c01021cb <irq7>:
c01021cb:	fa                   	cli    
c01021cc:	6a 00                	push   0x0
c01021ce:	6a 27                	push   0x27
c01021d0:	eb 38                	jmp    c010220a <irq_common_stub>

c01021d2 <irq8>:
c01021d2:	fa                   	cli    
c01021d3:	6a 00                	push   0x0
c01021d5:	6a 28                	push   0x28
c01021d7:	eb 31                	jmp    c010220a <irq_common_stub>

c01021d9 <irq9>:
c01021d9:	fa                   	cli    
c01021da:	6a 00                	push   0x0
c01021dc:	6a 29                	push   0x29
c01021de:	eb 2a                	jmp    c010220a <irq_common_stub>

c01021e0 <irq10>:
c01021e0:	fa                   	cli    
c01021e1:	6a 00                	push   0x0
c01021e3:	6a 2a                	push   0x2a
c01021e5:	eb 23                	jmp    c010220a <irq_common_stub>

c01021e7 <irq11>:
c01021e7:	fa                   	cli    
c01021e8:	6a 00                	push   0x0
c01021ea:	6a 2b                	push   0x2b
c01021ec:	eb 1c                	jmp    c010220a <irq_common_stub>

c01021ee <irq12>:
c01021ee:	fa                   	cli    
c01021ef:	6a 00                	push   0x0
c01021f1:	6a 2c                	push   0x2c
c01021f3:	eb 15                	jmp    c010220a <irq_common_stub>

c01021f5 <irq13>:
c01021f5:	fa                   	cli    
c01021f6:	6a 00                	push   0x0
c01021f8:	6a 2d                	push   0x2d
c01021fa:	eb 0e                	jmp    c010220a <irq_common_stub>

c01021fc <irq14>:
c01021fc:	fa                   	cli    
c01021fd:	6a 00                	push   0x0
c01021ff:	6a 2e                	push   0x2e
c0102201:	eb 07                	jmp    c010220a <irq_common_stub>

c0102203 <irq15>:
c0102203:	fa                   	cli    
c0102204:	6a 00                	push   0x0
c0102206:	6a 2f                	push   0x2f
c0102208:	eb 00                	jmp    c010220a <irq_common_stub>

c010220a <irq_common_stub>:
c010220a:	60                   	pusha  
c010220b:	66 8c d8             	mov    ax,ds
c010220e:	50                   	push   eax
c010220f:	66 b8 10 00          	mov    ax,0x10
c0102213:	8e d8                	mov    ds,eax
c0102215:	8e c0                	mov    es,eax
c0102217:	8e e0                	mov    fs,eax
c0102219:	8e e8                	mov    gs,eax
c010221b:	8e d0                	mov    ss,eax
c010221d:	54                   	push   esp
c010221e:	e8 cb 1e 00 00       	call   c01040ee <irq_handler>
c0102223:	83 c4 04             	add    esp,0x4
c0102226:	5b                   	pop    ebx
c0102227:	8e db                	mov    ds,ebx
c0102229:	8e c3                	mov    es,ebx
c010222b:	8e e3                	mov    fs,ebx
c010222d:	8e eb                	mov    gs,ebx
c010222f:	8e d3                	mov    ss,ebx
c0102231:	61                   	popa   
c0102232:	83 c4 08             	add    esp,0x8
c0102235:	cf                   	iret   

c0102236 <irq_common_stub.end>:
c0102236:	66 90                	xchg   ax,ax

c0102238 <kernel_thread>:
c0102238:	55                   	push   ebp
c0102239:	89 e5                	mov    ebp,esp
c010223b:	83 ec 28             	sub    esp,0x28
c010223e:	c7 04 24 00 20 00 00 	mov    DWORD PTR [esp],0x2000
c0102245:	e8 81 24 00 00       	call   c01046cb <kmalloc>
c010224a:	89 45 f0             	mov    DWORD PTR [ebp-0x10],eax
c010224d:	83 7d f0 00          	cmp    DWORD PTR [ebp-0x10],0x0
c0102251:	75 0c                	jne    c010225f <kernel_thread+0x27>
c0102253:	c7 04 24 14 50 10 c0 	mov    DWORD PTR [esp],0xc0105014
c010225a:	e8 57 0b 00 00       	call   c0102db6 <panic>
c010225f:	c7 44 24 04 2c 00 00 	mov    DWORD PTR [esp+0x4],0x2c
c0102266:	00 
c0102267:	8b 45 f0             	mov    eax,DWORD PTR [ebp-0x10]
c010226a:	89 04 24             	mov    DWORD PTR [esp],eax
c010226d:	e8 7b 29 00 00       	call   c0104bed <bzero>
c0102272:	8b 45 f0             	mov    eax,DWORD PTR [ebp-0x10]
c0102275:	c7 00 02 00 00 00    	mov    DWORD PTR [eax],0x2
c010227b:	8b 15 3c 68 10 c0    	mov    edx,DWORD PTR ds:0xc010683c
c0102281:	8b 45 f0             	mov    eax,DWORD PTR [ebp-0x10]
c0102284:	89 50 08             	mov    DWORD PTR [eax+0x8],edx
c0102287:	a1 00 60 10 c0       	mov    eax,ds:0xc0106000
c010228c:	8b 55 f0             	mov    edx,DWORD PTR [ebp-0x10]
c010228f:	89 42 04             	mov    DWORD PTR [edx+0x4],eax
c0102292:	83 c0 01             	add    eax,0x1
c0102295:	a3 00 60 10 c0       	mov    ds:0xc0106000,eax
c010229a:	8b 45 f0             	mov    eax,DWORD PTR [ebp-0x10]
c010229d:	c7 40 0c 00 00 00 00 	mov    DWORD PTR [eax+0xc],0x0
c01022a4:	8b 45 f0             	mov    eax,DWORD PTR [ebp-0x10]
c01022a7:	05 00 20 00 00       	add    eax,0x2000
c01022ac:	89 45 ec             	mov    DWORD PTR [ebp-0x14],eax
c01022af:	83 6d ec 04          	sub    DWORD PTR [ebp-0x14],0x4
c01022b3:	8b 55 0c             	mov    edx,DWORD PTR [ebp+0xc]
c01022b6:	8b 45 ec             	mov    eax,DWORD PTR [ebp-0x14]
c01022b9:	89 10                	mov    DWORD PTR [eax],edx
c01022bb:	83 6d ec 04          	sub    DWORD PTR [ebp-0x14],0x4
c01022bf:	ba 42 23 10 c0       	mov    edx,0xc0102342
c01022c4:	8b 45 ec             	mov    eax,DWORD PTR [ebp-0x14]
c01022c7:	89 10                	mov    DWORD PTR [eax],edx
c01022c9:	83 6d ec 04          	sub    DWORD PTR [ebp-0x14],0x4
c01022cd:	8b 55 08             	mov    edx,DWORD PTR [ebp+0x8]
c01022d0:	8b 45 ec             	mov    eax,DWORD PTR [ebp-0x14]
c01022d3:	89 10                	mov    DWORD PTR [eax],edx
c01022d5:	8b 45 f0             	mov    eax,DWORD PTR [ebp-0x10]
c01022d8:	8d 90 f4 1f 00 00    	lea    edx,[eax+0x1ff4]
c01022de:	8b 45 f0             	mov    eax,DWORD PTR [ebp-0x10]
c01022e1:	89 50 10             	mov    DWORD PTR [eax+0x10],edx
c01022e4:	8b 45 f0             	mov    eax,DWORD PTR [ebp-0x10]
c01022e7:	c7 40 24 00 02 00 00 	mov    DWORD PTR [eax+0x24],0x200
c01022ee:	8b 15 34 68 10 c0    	mov    edx,DWORD PTR ds:0xc0106834
c01022f4:	8b 45 f0             	mov    eax,DWORD PTR [ebp-0x10]
c01022f7:	89 50 28             	mov    DWORD PTR [eax+0x28],edx
c01022fa:	a1 34 68 10 c0       	mov    eax,ds:0xc0106834
c01022ff:	89 45 f4             	mov    DWORD PTR [ebp-0xc],eax
c0102302:	83 7d f4 00          	cmp    DWORD PTR [ebp-0xc],0x0
c0102306:	75 19                	jne    c0102321 <kernel_thread+0xe9>
c0102308:	c7 04 24 2f 50 10 c0 	mov    DWORD PTR [esp],0xc010502f
c010230f:	e8 a2 0a 00 00       	call   c0102db6 <panic>
c0102314:	eb 0b                	jmp    c0102321 <kernel_thread+0xe9>
c0102316:	8b 45 f4             	mov    eax,DWORD PTR [ebp-0xc]
c0102319:	8b 40 28             	mov    eax,DWORD PTR [eax+0x28]
c010231c:	89 45 f4             	mov    DWORD PTR [ebp-0xc],eax
c010231f:	eb 01                	jmp    c0102322 <kernel_thread+0xea>
c0102321:	90                   	nop
c0102322:	8b 45 f4             	mov    eax,DWORD PTR [ebp-0xc]
c0102325:	8b 50 28             	mov    edx,DWORD PTR [eax+0x28]
c0102328:	a1 34 68 10 c0       	mov    eax,ds:0xc0106834
c010232d:	39 c2                	cmp    edx,eax
c010232f:	75 e5                	jne    c0102316 <kernel_thread+0xde>
c0102331:	8b 45 f4             	mov    eax,DWORD PTR [ebp-0xc]
c0102334:	8b 55 f0             	mov    edx,DWORD PTR [ebp-0x10]
c0102337:	89 50 28             	mov    DWORD PTR [eax+0x28],edx
c010233a:	8b 45 f0             	mov    eax,DWORD PTR [ebp-0x10]
c010233d:	8b 40 04             	mov    eax,DWORD PTR [eax+0x4]
c0102340:	c9                   	leave  
c0102341:	c3                   	ret    

c0102342 <kthread_exit>:
c0102342:	55                   	push   ebp
c0102343:	89 e5                	mov    ebp,esp
c0102345:	83 ec 18             	sub    esp,0x18
c0102348:	89 44 24 04          	mov    DWORD PTR [esp+0x4],eax
c010234c:	c7 04 24 40 50 10 c0 	mov    DWORD PTR [esp],0xc0105040
c0102353:	e8 fc 01 00 00       	call   c0102554 <printk>
c0102358:	eb fe                	jmp    c0102358 <kthread_exit+0x16>

c010235a <do_exit>:
c010235a:	55                   	push   ebp
c010235b:	89 e5                	mov    ebp,esp
c010235d:	5d                   	pop    ebp
c010235e:	c3                   	ret    

c010235f <switch_to_user_mode>:
c010235f:	55                   	push   ebp
c0102360:	89 e5                	mov    ebp,esp
c0102362:	fa                   	cli    
c0102363:	89 e0                	mov    eax,esp
c0102365:	6a 23                	push   0x23
c0102367:	50                   	push   eax
c0102368:	9c                   	pushf  
c0102369:	6a 1b                	push   0x1b
c010236b:	68 71 23 10 c0       	push   0xc0102371
c0102370:	cf                   	iret   
c0102371:	b8 23 00 00 00       	mov    eax,0x23
c0102376:	8e d8                	mov    ds,eax
c0102378:	8e c0                	mov    es,eax
c010237a:	8e e0                	mov    fs,eax
c010237c:	8e e8                	mov    gs,eax
c010237e:	5d                   	pop    ebp
c010237f:	c3                   	ret    

c0102380 <elf_from_multiboot>:
c0102380:	55                   	push   ebp
c0102381:	89 e5                	mov    ebp,esp
c0102383:	83 ec 38             	sub    esp,0x38
c0102386:	8b 45 0c             	mov    eax,DWORD PTR [ebp+0xc]
c0102389:	8b 40 24             	mov    eax,DWORD PTR [eax+0x24]
c010238c:	89 45 f0             	mov    DWORD PTR [ebp-0x10],eax
c010238f:	8b 45 0c             	mov    eax,DWORD PTR [ebp+0xc]
c0102392:	8b 50 28             	mov    edx,DWORD PTR [eax+0x28]
c0102395:	89 d0                	mov    eax,edx
c0102397:	c1 e0 02             	shl    eax,0x2
c010239a:	01 d0                	add    eax,edx
c010239c:	c1 e0 03             	shl    eax,0x3
c010239f:	89 c2                	mov    edx,eax
c01023a1:	8b 45 f0             	mov    eax,DWORD PTR [ebp-0x10]
c01023a4:	01 d0                	add    eax,edx
c01023a6:	8b 40 0c             	mov    eax,DWORD PTR [eax+0xc]
c01023a9:	89 45 ec             	mov    DWORD PTR [ebp-0x14],eax
c01023ac:	c7 45 f4 00 00 00 00 	mov    DWORD PTR [ebp-0xc],0x0
c01023b3:	e9 c7 00 00 00       	jmp    c010247f <elf_from_multiboot+0xff>
c01023b8:	8b 55 f4             	mov    edx,DWORD PTR [ebp-0xc]
c01023bb:	89 d0                	mov    eax,edx
c01023bd:	c1 e0 02             	shl    eax,0x2
c01023c0:	01 d0                	add    eax,edx
c01023c2:	c1 e0 03             	shl    eax,0x3
c01023c5:	89 c2                	mov    edx,eax
c01023c7:	8b 45 f0             	mov    eax,DWORD PTR [ebp-0x10]
c01023ca:	01 d0                	add    eax,edx
c01023cc:	8b 10                	mov    edx,DWORD PTR [eax]
c01023ce:	8b 45 ec             	mov    eax,DWORD PTR [ebp-0x14]
c01023d1:	01 d0                	add    eax,edx
c01023d3:	2d 00 00 00 40       	sub    eax,0x40000000
c01023d8:	89 45 e8             	mov    DWORD PTR [ebp-0x18],eax
c01023db:	c7 44 24 04 5d 50 10 	mov    DWORD PTR [esp+0x4],0xc010505d
c01023e2:	c0 
c01023e3:	8b 45 e8             	mov    eax,DWORD PTR [ebp-0x18]
c01023e6:	89 04 24             	mov    DWORD PTR [esp],eax
c01023e9:	e8 21 28 00 00       	call   c0104c0f <strcmp>
c01023ee:	85 c0                	test   eax,eax
c01023f0:	75 39                	jne    c010242b <elf_from_multiboot+0xab>
c01023f2:	8b 55 f4             	mov    edx,DWORD PTR [ebp-0xc]
c01023f5:	89 d0                	mov    eax,edx
c01023f7:	c1 e0 02             	shl    eax,0x2
c01023fa:	01 d0                	add    eax,edx
c01023fc:	c1 e0 03             	shl    eax,0x3
c01023ff:	89 c2                	mov    edx,eax
c0102401:	8b 45 f0             	mov    eax,DWORD PTR [ebp-0x10]
c0102404:	01 d0                	add    eax,edx
c0102406:	8b 40 0c             	mov    eax,DWORD PTR [eax+0xc]
c0102409:	2d 00 00 00 40       	sub    eax,0x40000000
c010240e:	89 45 e0             	mov    DWORD PTR [ebp-0x20],eax
c0102411:	8b 55 f4             	mov    edx,DWORD PTR [ebp-0xc]
c0102414:	89 d0                	mov    eax,edx
c0102416:	c1 e0 02             	shl    eax,0x2
c0102419:	01 d0                	add    eax,edx
c010241b:	c1 e0 03             	shl    eax,0x3
c010241e:	89 c2                	mov    edx,eax
c0102420:	8b 45 f0             	mov    eax,DWORD PTR [ebp-0x10]
c0102423:	01 d0                	add    eax,edx
c0102425:	8b 40 14             	mov    eax,DWORD PTR [eax+0x14]
c0102428:	89 45 e4             	mov    DWORD PTR [ebp-0x1c],eax
c010242b:	c7 44 24 04 65 50 10 	mov    DWORD PTR [esp+0x4],0xc0105065
c0102432:	c0 
c0102433:	8b 45 e8             	mov    eax,DWORD PTR [ebp-0x18]
c0102436:	89 04 24             	mov    DWORD PTR [esp],eax
c0102439:	e8 d1 27 00 00       	call   c0104c0f <strcmp>
c010243e:	85 c0                	test   eax,eax
c0102440:	75 39                	jne    c010247b <elf_from_multiboot+0xfb>
c0102442:	8b 55 f4             	mov    edx,DWORD PTR [ebp-0xc]
c0102445:	89 d0                	mov    eax,edx
c0102447:	c1 e0 02             	shl    eax,0x2
c010244a:	01 d0                	add    eax,edx
c010244c:	c1 e0 03             	shl    eax,0x3
c010244f:	89 c2                	mov    edx,eax
c0102451:	8b 45 f0             	mov    eax,DWORD PTR [ebp-0x10]
c0102454:	01 d0                	add    eax,edx
c0102456:	8b 40 0c             	mov    eax,DWORD PTR [eax+0xc]
c0102459:	2d 00 00 00 40       	sub    eax,0x40000000
c010245e:	89 45 d8             	mov    DWORD PTR [ebp-0x28],eax
c0102461:	8b 55 f4             	mov    edx,DWORD PTR [ebp-0xc]
c0102464:	89 d0                	mov    eax,edx
c0102466:	c1 e0 02             	shl    eax,0x2
c0102469:	01 d0                	add    eax,edx
c010246b:	c1 e0 03             	shl    eax,0x3
c010246e:	89 c2                	mov    edx,eax
c0102470:	8b 45 f0             	mov    eax,DWORD PTR [ebp-0x10]
c0102473:	01 d0                	add    eax,edx
c0102475:	8b 40 14             	mov    eax,DWORD PTR [eax+0x14]
c0102478:	89 45 dc             	mov    DWORD PTR [ebp-0x24],eax
c010247b:	83 45 f4 01          	add    DWORD PTR [ebp-0xc],0x1
c010247f:	8b 55 f4             	mov    edx,DWORD PTR [ebp-0xc]
c0102482:	8b 45 0c             	mov    eax,DWORD PTR [ebp+0xc]
c0102485:	8b 40 1c             	mov    eax,DWORD PTR [eax+0x1c]
c0102488:	39 c2                	cmp    edx,eax
c010248a:	0f 82 28 ff ff ff    	jb     c01023b8 <elf_from_multiboot+0x38>
c0102490:	8b 45 08             	mov    eax,DWORD PTR [ebp+0x8]
c0102493:	8b 55 d8             	mov    edx,DWORD PTR [ebp-0x28]
c0102496:	89 10                	mov    DWORD PTR [eax],edx
c0102498:	8b 55 dc             	mov    edx,DWORD PTR [ebp-0x24]
c010249b:	89 50 04             	mov    DWORD PTR [eax+0x4],edx
c010249e:	8b 55 e0             	mov    edx,DWORD PTR [ebp-0x20]
c01024a1:	89 50 08             	mov    DWORD PTR [eax+0x8],edx
c01024a4:	8b 55 e4             	mov    edx,DWORD PTR [ebp-0x1c]
c01024a7:	89 50 0c             	mov    DWORD PTR [eax+0xc],edx
c01024aa:	8b 45 08             	mov    eax,DWORD PTR [ebp+0x8]
c01024ad:	c9                   	leave  
c01024ae:	c2 04 00             	ret    0x4

c01024b1 <elf_lookup_symbol>:
c01024b1:	55                   	push   ebp
c01024b2:	89 e5                	mov    ebp,esp
c01024b4:	83 ec 10             	sub    esp,0x10
c01024b7:	c7 45 fc 00 00 00 00 	mov    DWORD PTR [ebp-0x4],0x0
c01024be:	eb 78                	jmp    c0102538 <elf_lookup_symbol+0x87>
c01024c0:	8b 45 0c             	mov    eax,DWORD PTR [ebp+0xc]
c01024c3:	8b 00                	mov    eax,DWORD PTR [eax]
c01024c5:	8b 55 fc             	mov    edx,DWORD PTR [ebp-0x4]
c01024c8:	c1 e2 04             	shl    edx,0x4
c01024cb:	01 d0                	add    eax,edx
c01024cd:	0f b6 40 0c          	movzx  eax,BYTE PTR [eax+0xc]
c01024d1:	0f b6 c0             	movzx  eax,al
c01024d4:	83 e0 0f             	and    eax,0xf
c01024d7:	83 f8 02             	cmp    eax,0x2
c01024da:	75 57                	jne    c0102533 <elf_lookup_symbol+0x82>
c01024dc:	8b 45 0c             	mov    eax,DWORD PTR [ebp+0xc]
c01024df:	8b 00                	mov    eax,DWORD PTR [eax]
c01024e1:	8b 55 fc             	mov    edx,DWORD PTR [ebp-0x4]
c01024e4:	c1 e2 04             	shl    edx,0x4
c01024e7:	01 d0                	add    eax,edx
c01024e9:	8b 40 04             	mov    eax,DWORD PTR [eax+0x4]
c01024ec:	3b 45 08             	cmp    eax,DWORD PTR [ebp+0x8]
c01024ef:	77 43                	ja     c0102534 <elf_lookup_symbol+0x83>
c01024f1:	8b 45 0c             	mov    eax,DWORD PTR [ebp+0xc]
c01024f4:	8b 00                	mov    eax,DWORD PTR [eax]
c01024f6:	8b 55 fc             	mov    edx,DWORD PTR [ebp-0x4]
c01024f9:	c1 e2 04             	shl    edx,0x4
c01024fc:	01 d0                	add    eax,edx
c01024fe:	8b 50 04             	mov    edx,DWORD PTR [eax+0x4]
c0102501:	8b 45 0c             	mov    eax,DWORD PTR [ebp+0xc]
c0102504:	8b 00                	mov    eax,DWORD PTR [eax]
c0102506:	8b 4d fc             	mov    ecx,DWORD PTR [ebp-0x4]
c0102509:	c1 e1 04             	shl    ecx,0x4
c010250c:	01 c8                	add    eax,ecx
c010250e:	8b 40 08             	mov    eax,DWORD PTR [eax+0x8]
c0102511:	01 d0                	add    eax,edx
c0102513:	3b 45 08             	cmp    eax,DWORD PTR [ebp+0x8]
c0102516:	76 1c                	jbe    c0102534 <elf_lookup_symbol+0x83>
c0102518:	8b 45 0c             	mov    eax,DWORD PTR [ebp+0xc]
c010251b:	8b 40 08             	mov    eax,DWORD PTR [eax+0x8]
c010251e:	89 c2                	mov    edx,eax
c0102520:	8b 45 0c             	mov    eax,DWORD PTR [ebp+0xc]
c0102523:	8b 00                	mov    eax,DWORD PTR [eax]
c0102525:	8b 4d fc             	mov    ecx,DWORD PTR [ebp-0x4]
c0102528:	c1 e1 04             	shl    ecx,0x4
c010252b:	01 c8                	add    eax,ecx
c010252d:	8b 00                	mov    eax,DWORD PTR [eax]
c010252f:	01 d0                	add    eax,edx
c0102531:	eb 1e                	jmp    c0102551 <elf_lookup_symbol+0xa0>
c0102533:	90                   	nop
c0102534:	83 45 fc 01          	add    DWORD PTR [ebp-0x4],0x1
c0102538:	8b 55 fc             	mov    edx,DWORD PTR [ebp-0x4]
c010253b:	8b 45 0c             	mov    eax,DWORD PTR [ebp+0xc]
c010253e:	8b 40 04             	mov    eax,DWORD PTR [eax+0x4]
c0102541:	c1 e8 04             	shr    eax,0x4
c0102544:	39 c2                	cmp    edx,eax
c0102546:	0f 82 74 ff ff ff    	jb     c01024c0 <elf_lookup_symbol+0xf>
c010254c:	b8 00 00 00 00       	mov    eax,0x0
c0102551:	c9                   	leave  
c0102552:	c3                   	ret    
c0102553:	90                   	nop

c0102554 <printk>:
c0102554:	55                   	push   ebp
c0102555:	89 e5                	mov    ebp,esp
c0102557:	83 ec 28             	sub    esp,0x28
c010255a:	8d 45 0c             	lea    eax,[ebp+0xc]
c010255d:	89 45 f0             	mov    DWORD PTR [ebp-0x10],eax
c0102560:	8b 45 f0             	mov    eax,DWORD PTR [ebp-0x10]
c0102563:	89 44 24 08          	mov    DWORD PTR [esp+0x8],eax
c0102567:	8b 45 08             	mov    eax,DWORD PTR [ebp+0x8]
c010256a:	89 44 24 04          	mov    DWORD PTR [esp+0x4],eax
c010256e:	c7 04 24 20 64 10 c0 	mov    DWORD PTR [esp],0xc0106420
c0102575:	e8 fb 02 00 00       	call   c0102875 <vsprintf>
c010257a:	89 45 f4             	mov    DWORD PTR [ebp-0xc],eax
c010257d:	8b 45 f4             	mov    eax,DWORD PTR [ebp-0xc]
c0102580:	05 20 64 10 c0       	add    eax,0xc0106420
c0102585:	c6 00 00             	mov    BYTE PTR [eax],0x0
c0102588:	c7 04 24 20 64 10 c0 	mov    DWORD PTR [esp],0xc0106420
c010258f:	e8 dd 0d 00 00       	call   c0103371 <console_write>
c0102594:	c9                   	leave  
c0102595:	c3                   	ret    

c0102596 <printk_color>:
c0102596:	55                   	push   ebp
c0102597:	89 e5                	mov    ebp,esp
c0102599:	83 ec 28             	sub    esp,0x28
c010259c:	8d 45 14             	lea    eax,[ebp+0x14]
c010259f:	89 45 f0             	mov    DWORD PTR [ebp-0x10],eax
c01025a2:	8b 45 f0             	mov    eax,DWORD PTR [ebp-0x10]
c01025a5:	89 44 24 08          	mov    DWORD PTR [esp+0x8],eax
c01025a9:	8b 45 10             	mov    eax,DWORD PTR [ebp+0x10]
c01025ac:	89 44 24 04          	mov    DWORD PTR [esp+0x4],eax
c01025b0:	c7 04 24 20 60 10 c0 	mov    DWORD PTR [esp],0xc0106020
c01025b7:	e8 b9 02 00 00       	call   c0102875 <vsprintf>
c01025bc:	89 45 f4             	mov    DWORD PTR [ebp-0xc],eax
c01025bf:	8b 45 f4             	mov    eax,DWORD PTR [ebp-0xc]
c01025c2:	05 20 60 10 c0       	add    eax,0xc0106020
c01025c7:	c6 00 00             	mov    BYTE PTR [eax],0x0
c01025ca:	8b 45 0c             	mov    eax,DWORD PTR [ebp+0xc]
c01025cd:	89 44 24 08          	mov    DWORD PTR [esp+0x8],eax
c01025d1:	8b 45 08             	mov    eax,DWORD PTR [ebp+0x8]
c01025d4:	89 44 24 04          	mov    DWORD PTR [esp+0x4],eax
c01025d8:	c7 04 24 20 60 10 c0 	mov    DWORD PTR [esp],0xc0106020
c01025df:	e8 c6 0d 00 00       	call   c01033aa <console_write_color>
c01025e4:	c9                   	leave  
c01025e5:	c3                   	ret    

c01025e6 <skip_atoi>:
c01025e6:	55                   	push   ebp
c01025e7:	89 e5                	mov    ebp,esp
c01025e9:	83 ec 10             	sub    esp,0x10
c01025ec:	c7 45 fc 00 00 00 00 	mov    DWORD PTR [ebp-0x4],0x0
c01025f3:	eb 29                	jmp    c010261e <skip_atoi+0x38>
c01025f5:	8b 55 fc             	mov    edx,DWORD PTR [ebp-0x4]
c01025f8:	89 d0                	mov    eax,edx
c01025fa:	c1 e0 02             	shl    eax,0x2
c01025fd:	01 d0                	add    eax,edx
c01025ff:	01 c0                	add    eax,eax
c0102601:	89 c1                	mov    ecx,eax
c0102603:	8b 45 08             	mov    eax,DWORD PTR [ebp+0x8]
c0102606:	8b 00                	mov    eax,DWORD PTR [eax]
c0102608:	0f b6 10             	movzx  edx,BYTE PTR [eax]
c010260b:	0f be d2             	movsx  edx,dl
c010260e:	01 ca                	add    edx,ecx
c0102610:	83 ea 30             	sub    edx,0x30
c0102613:	89 55 fc             	mov    DWORD PTR [ebp-0x4],edx
c0102616:	8d 50 01             	lea    edx,[eax+0x1]
c0102619:	8b 45 08             	mov    eax,DWORD PTR [ebp+0x8]
c010261c:	89 10                	mov    DWORD PTR [eax],edx
c010261e:	8b 45 08             	mov    eax,DWORD PTR [ebp+0x8]
c0102621:	8b 00                	mov    eax,DWORD PTR [eax]
c0102623:	0f b6 00             	movzx  eax,BYTE PTR [eax]
c0102626:	3c 2f                	cmp    al,0x2f
c0102628:	7e 0c                	jle    c0102636 <skip_atoi+0x50>
c010262a:	8b 45 08             	mov    eax,DWORD PTR [ebp+0x8]
c010262d:	8b 00                	mov    eax,DWORD PTR [eax]
c010262f:	0f b6 00             	movzx  eax,BYTE PTR [eax]
c0102632:	3c 39                	cmp    al,0x39
c0102634:	7e bf                	jle    c01025f5 <skip_atoi+0xf>
c0102636:	8b 45 fc             	mov    eax,DWORD PTR [ebp-0x4]
c0102639:	c9                   	leave  
c010263a:	c3                   	ret    

c010263b <number>:
c010263b:	55                   	push   ebp
c010263c:	89 e5                	mov    ebp,esp
c010263e:	53                   	push   ebx
c010263f:	83 ec 40             	sub    esp,0x40
c0102642:	c7 45 f4 70 50 10 c0 	mov    DWORD PTR [ebp-0xc],0xc0105070
c0102649:	8b 45 1c             	mov    eax,DWORD PTR [ebp+0x1c]
c010264c:	83 e0 40             	and    eax,0x40
c010264f:	85 c0                	test   eax,eax
c0102651:	74 07                	je     c010265a <number+0x1f>
c0102653:	c7 45 f4 98 50 10 c0 	mov    DWORD PTR [ebp-0xc],0xc0105098
c010265a:	8b 45 1c             	mov    eax,DWORD PTR [ebp+0x1c]
c010265d:	83 e0 10             	and    eax,0x10
c0102660:	85 c0                	test   eax,eax
c0102662:	74 04                	je     c0102668 <number+0x2d>
c0102664:	83 65 1c fe          	and    DWORD PTR [ebp+0x1c],0xfffffffe
c0102668:	83 7d 10 01          	cmp    DWORD PTR [ebp+0x10],0x1
c010266c:	7e 06                	jle    c0102674 <number+0x39>
c010266e:	83 7d 10 24          	cmp    DWORD PTR [ebp+0x10],0x24
c0102672:	7e 0a                	jle    c010267e <number+0x43>
c0102674:	b8 00 00 00 00       	mov    eax,0x0
c0102679:	e9 f1 01 00 00       	jmp    c010286f <number+0x234>
c010267e:	8b 45 1c             	mov    eax,DWORD PTR [ebp+0x1c]
c0102681:	83 e0 01             	and    eax,0x1
c0102684:	85 c0                	test   eax,eax
c0102686:	74 07                	je     c010268f <number+0x54>
c0102688:	b8 30 00 00 00       	mov    eax,0x30
c010268d:	eb 05                	jmp    c0102694 <number+0x59>
c010268f:	b8 20 00 00 00       	mov    eax,0x20
c0102694:	88 45 ef             	mov    BYTE PTR [ebp-0x11],al
c0102697:	8b 45 1c             	mov    eax,DWORD PTR [ebp+0x1c]
c010269a:	83 e0 02             	and    eax,0x2
c010269d:	85 c0                	test   eax,eax
c010269f:	74 0f                	je     c01026b0 <number+0x75>
c01026a1:	83 7d 0c 00          	cmp    DWORD PTR [ebp+0xc],0x0
c01026a5:	79 09                	jns    c01026b0 <number+0x75>
c01026a7:	c6 45 fb 2d          	mov    BYTE PTR [ebp-0x5],0x2d
c01026ab:	f7 5d 0c             	neg    DWORD PTR [ebp+0xc]
c01026ae:	eb 2a                	jmp    c01026da <number+0x9f>
c01026b0:	8b 45 1c             	mov    eax,DWORD PTR [ebp+0x1c]
c01026b3:	83 e0 04             	and    eax,0x4
c01026b6:	85 c0                	test   eax,eax
c01026b8:	75 18                	jne    c01026d2 <number+0x97>
c01026ba:	8b 45 1c             	mov    eax,DWORD PTR [ebp+0x1c]
c01026bd:	83 e0 08             	and    eax,0x8
c01026c0:	85 c0                	test   eax,eax
c01026c2:	74 07                	je     c01026cb <number+0x90>
c01026c4:	b8 20 00 00 00       	mov    eax,0x20
c01026c9:	eb 05                	jmp    c01026d0 <number+0x95>
c01026cb:	b8 00 00 00 00       	mov    eax,0x0
c01026d0:	eb 05                	jmp    c01026d7 <number+0x9c>
c01026d2:	b8 2b 00 00 00       	mov    eax,0x2b
c01026d7:	88 45 fb             	mov    BYTE PTR [ebp-0x5],al
c01026da:	80 7d fb 00          	cmp    BYTE PTR [ebp-0x5],0x0
c01026de:	74 04                	je     c01026e4 <number+0xa9>
c01026e0:	83 6d 14 01          	sub    DWORD PTR [ebp+0x14],0x1
c01026e4:	8b 45 1c             	mov    eax,DWORD PTR [ebp+0x1c]
c01026e7:	83 e0 20             	and    eax,0x20
c01026ea:	85 c0                	test   eax,eax
c01026ec:	74 16                	je     c0102704 <number+0xc9>
c01026ee:	83 7d 10 10          	cmp    DWORD PTR [ebp+0x10],0x10
c01026f2:	75 06                	jne    c01026fa <number+0xbf>
c01026f4:	83 6d 14 02          	sub    DWORD PTR [ebp+0x14],0x2
c01026f8:	eb 0a                	jmp    c0102704 <number+0xc9>
c01026fa:	83 7d 10 08          	cmp    DWORD PTR [ebp+0x10],0x8
c01026fe:	75 04                	jne    c0102704 <number+0xc9>
c0102700:	83 6d 14 01          	sub    DWORD PTR [ebp+0x14],0x1
c0102704:	c7 45 f0 00 00 00 00 	mov    DWORD PTR [ebp-0x10],0x0
c010270b:	83 7d 0c 00          	cmp    DWORD PTR [ebp+0xc],0x0
c010270f:	75 45                	jne    c0102756 <number+0x11b>
c0102711:	8d 55 c4             	lea    edx,[ebp-0x3c]
c0102714:	8b 45 f0             	mov    eax,DWORD PTR [ebp-0x10]
c0102717:	01 d0                	add    eax,edx
c0102719:	c6 00 30             	mov    BYTE PTR [eax],0x30
c010271c:	83 45 f0 01          	add    DWORD PTR [ebp-0x10],0x1
c0102720:	eb 3a                	jmp    c010275c <number+0x121>
c0102722:	8b 45 0c             	mov    eax,DWORD PTR [ebp+0xc]
c0102725:	ba 00 00 00 00       	mov    edx,0x0
c010272a:	8b 4d 10             	mov    ecx,DWORD PTR [ebp+0x10]
c010272d:	89 d3                	mov    ebx,edx
c010272f:	89 da                	mov    edx,ebx
c0102731:	f7 f1                	div    ecx
c0102733:	89 d3                	mov    ebx,edx
c0102735:	89 45 0c             	mov    DWORD PTR [ebp+0xc],eax
c0102738:	89 5d e8             	mov    DWORD PTR [ebp-0x18],ebx
c010273b:	8b 45 e8             	mov    eax,DWORD PTR [ebp-0x18]
c010273e:	89 c2                	mov    edx,eax
c0102740:	8b 45 f4             	mov    eax,DWORD PTR [ebp-0xc]
c0102743:	01 d0                	add    eax,edx
c0102745:	0f b6 00             	movzx  eax,BYTE PTR [eax]
c0102748:	8d 4d c4             	lea    ecx,[ebp-0x3c]
c010274b:	8b 55 f0             	mov    edx,DWORD PTR [ebp-0x10]
c010274e:	01 ca                	add    edx,ecx
c0102750:	88 02                	mov    BYTE PTR [edx],al
c0102752:	83 45 f0 01          	add    DWORD PTR [ebp-0x10],0x1
c0102756:	83 7d 0c 00          	cmp    DWORD PTR [ebp+0xc],0x0
c010275a:	75 c6                	jne    c0102722 <number+0xe7>
c010275c:	8b 45 f0             	mov    eax,DWORD PTR [ebp-0x10]
c010275f:	3b 45 18             	cmp    eax,DWORD PTR [ebp+0x18]
c0102762:	7e 06                	jle    c010276a <number+0x12f>
c0102764:	8b 45 f0             	mov    eax,DWORD PTR [ebp-0x10]
c0102767:	89 45 18             	mov    DWORD PTR [ebp+0x18],eax
c010276a:	8b 45 18             	mov    eax,DWORD PTR [ebp+0x18]
c010276d:	29 45 14             	sub    DWORD PTR [ebp+0x14],eax
c0102770:	8b 45 1c             	mov    eax,DWORD PTR [ebp+0x1c]
c0102773:	83 e0 11             	and    eax,0x11
c0102776:	85 c0                	test   eax,eax
c0102778:	75 1b                	jne    c0102795 <number+0x15a>
c010277a:	eb 0a                	jmp    c0102786 <number+0x14b>
c010277c:	8b 45 08             	mov    eax,DWORD PTR [ebp+0x8]
c010277f:	c6 00 20             	mov    BYTE PTR [eax],0x20
c0102782:	83 45 08 01          	add    DWORD PTR [ebp+0x8],0x1
c0102786:	83 7d 14 00          	cmp    DWORD PTR [ebp+0x14],0x0
c010278a:	0f 9f c0             	setg   al
c010278d:	83 6d 14 01          	sub    DWORD PTR [ebp+0x14],0x1
c0102791:	84 c0                	test   al,al
c0102793:	75 e7                	jne    c010277c <number+0x141>
c0102795:	80 7d fb 00          	cmp    BYTE PTR [ebp-0x5],0x0
c0102799:	74 0d                	je     c01027a8 <number+0x16d>
c010279b:	8b 45 08             	mov    eax,DWORD PTR [ebp+0x8]
c010279e:	0f b6 55 fb          	movzx  edx,BYTE PTR [ebp-0x5]
c01027a2:	88 10                	mov    BYTE PTR [eax],dl
c01027a4:	83 45 08 01          	add    DWORD PTR [ebp+0x8],0x1
c01027a8:	8b 45 1c             	mov    eax,DWORD PTR [ebp+0x1c]
c01027ab:	83 e0 20             	and    eax,0x20
c01027ae:	85 c0                	test   eax,eax
c01027b0:	74 32                	je     c01027e4 <number+0x1a9>
c01027b2:	83 7d 10 08          	cmp    DWORD PTR [ebp+0x10],0x8
c01027b6:	75 0c                	jne    c01027c4 <number+0x189>
c01027b8:	8b 45 08             	mov    eax,DWORD PTR [ebp+0x8]
c01027bb:	c6 00 30             	mov    BYTE PTR [eax],0x30
c01027be:	83 45 08 01          	add    DWORD PTR [ebp+0x8],0x1
c01027c2:	eb 20                	jmp    c01027e4 <number+0x1a9>
c01027c4:	83 7d 10 10          	cmp    DWORD PTR [ebp+0x10],0x10
c01027c8:	75 1a                	jne    c01027e4 <number+0x1a9>
c01027ca:	8b 45 08             	mov    eax,DWORD PTR [ebp+0x8]
c01027cd:	c6 00 30             	mov    BYTE PTR [eax],0x30
c01027d0:	83 45 08 01          	add    DWORD PTR [ebp+0x8],0x1
c01027d4:	8b 45 f4             	mov    eax,DWORD PTR [ebp-0xc]
c01027d7:	0f b6 50 21          	movzx  edx,BYTE PTR [eax+0x21]
c01027db:	8b 45 08             	mov    eax,DWORD PTR [ebp+0x8]
c01027de:	88 10                	mov    BYTE PTR [eax],dl
c01027e0:	83 45 08 01          	add    DWORD PTR [ebp+0x8],0x1
c01027e4:	8b 45 1c             	mov    eax,DWORD PTR [ebp+0x1c]
c01027e7:	83 e0 10             	and    eax,0x10
c01027ea:	85 c0                	test   eax,eax
c01027ec:	75 2c                	jne    c010281a <number+0x1df>
c01027ee:	eb 0d                	jmp    c01027fd <number+0x1c2>
c01027f0:	8b 45 08             	mov    eax,DWORD PTR [ebp+0x8]
c01027f3:	0f b6 55 ef          	movzx  edx,BYTE PTR [ebp-0x11]
c01027f7:	88 10                	mov    BYTE PTR [eax],dl
c01027f9:	83 45 08 01          	add    DWORD PTR [ebp+0x8],0x1
c01027fd:	83 7d 14 00          	cmp    DWORD PTR [ebp+0x14],0x0
c0102801:	0f 9f c0             	setg   al
c0102804:	83 6d 14 01          	sub    DWORD PTR [ebp+0x14],0x1
c0102808:	84 c0                	test   al,al
c010280a:	75 e4                	jne    c01027f0 <number+0x1b5>
c010280c:	eb 0c                	jmp    c010281a <number+0x1df>
c010280e:	8b 45 08             	mov    eax,DWORD PTR [ebp+0x8]
c0102811:	c6 00 30             	mov    BYTE PTR [eax],0x30
c0102814:	83 45 08 01          	add    DWORD PTR [ebp+0x8],0x1
c0102818:	eb 01                	jmp    c010281b <number+0x1e0>
c010281a:	90                   	nop
c010281b:	8b 45 18             	mov    eax,DWORD PTR [ebp+0x18]
c010281e:	3b 45 f0             	cmp    eax,DWORD PTR [ebp-0x10]
c0102821:	0f 9f c0             	setg   al
c0102824:	83 6d 18 01          	sub    DWORD PTR [ebp+0x18],0x1
c0102828:	84 c0                	test   al,al
c010282a:	75 e2                	jne    c010280e <number+0x1d3>
c010282c:	eb 14                	jmp    c0102842 <number+0x207>
c010282e:	8d 55 c4             	lea    edx,[ebp-0x3c]
c0102831:	8b 45 f0             	mov    eax,DWORD PTR [ebp-0x10]
c0102834:	01 d0                	add    eax,edx
c0102836:	0f b6 10             	movzx  edx,BYTE PTR [eax]
c0102839:	8b 45 08             	mov    eax,DWORD PTR [ebp+0x8]
c010283c:	88 10                	mov    BYTE PTR [eax],dl
c010283e:	83 45 08 01          	add    DWORD PTR [ebp+0x8],0x1
c0102842:	83 7d f0 00          	cmp    DWORD PTR [ebp-0x10],0x0
c0102846:	0f 9f c0             	setg   al
c0102849:	83 6d f0 01          	sub    DWORD PTR [ebp-0x10],0x1
c010284d:	84 c0                	test   al,al
c010284f:	75 dd                	jne    c010282e <number+0x1f3>
c0102851:	eb 0a                	jmp    c010285d <number+0x222>
c0102853:	8b 45 08             	mov    eax,DWORD PTR [ebp+0x8]
c0102856:	c6 00 20             	mov    BYTE PTR [eax],0x20
c0102859:	83 45 08 01          	add    DWORD PTR [ebp+0x8],0x1
c010285d:	83 7d 14 00          	cmp    DWORD PTR [ebp+0x14],0x0
c0102861:	0f 9f c0             	setg   al
c0102864:	83 6d 14 01          	sub    DWORD PTR [ebp+0x14],0x1
c0102868:	84 c0                	test   al,al
c010286a:	75 e7                	jne    c0102853 <number+0x218>
c010286c:	8b 45 08             	mov    eax,DWORD PTR [ebp+0x8]
c010286f:	83 c4 40             	add    esp,0x40
c0102872:	5b                   	pop    ebx
c0102873:	5d                   	pop    ebp
c0102874:	c3                   	ret    

c0102875 <vsprintf>:
c0102875:	55                   	push   ebp
c0102876:	89 e5                	mov    ebp,esp
c0102878:	83 ec 48             	sub    esp,0x48
c010287b:	8b 45 08             	mov    eax,DWORD PTR [ebp+0x8]
c010287e:	89 45 ec             	mov    DWORD PTR [ebp-0x14],eax
c0102881:	e9 08 04 00 00       	jmp    c0102c8e <vsprintf+0x419>
c0102886:	8b 45 0c             	mov    eax,DWORD PTR [ebp+0xc]
c0102889:	0f b6 00             	movzx  eax,BYTE PTR [eax]
c010288c:	3c 25                	cmp    al,0x25
c010288e:	74 14                	je     c01028a4 <vsprintf+0x2f>
c0102890:	8b 45 0c             	mov    eax,DWORD PTR [ebp+0xc]
c0102893:	0f b6 10             	movzx  edx,BYTE PTR [eax]
c0102896:	8b 45 ec             	mov    eax,DWORD PTR [ebp-0x14]
c0102899:	88 10                	mov    BYTE PTR [eax],dl
c010289b:	83 45 ec 01          	add    DWORD PTR [ebp-0x14],0x1
c010289f:	e9 e1 03 00 00       	jmp    c0102c85 <vsprintf+0x410>
c01028a4:	c7 45 e4 00 00 00 00 	mov    DWORD PTR [ebp-0x1c],0x0
c01028ab:	8b 45 0c             	mov    eax,DWORD PTR [ebp+0xc]
c01028ae:	83 c0 01             	add    eax,0x1
c01028b1:	89 45 0c             	mov    DWORD PTR [ebp+0xc],eax
c01028b4:	8b 45 0c             	mov    eax,DWORD PTR [ebp+0xc]
c01028b7:	0f b6 00             	movzx  eax,BYTE PTR [eax]
c01028ba:	0f be c0             	movsx  eax,al
c01028bd:	83 e8 20             	sub    eax,0x20
c01028c0:	83 f8 10             	cmp    eax,0x10
c01028c3:	77 27                	ja     c01028ec <vsprintf+0x77>
c01028c5:	8b 04 85 c0 50 10 c0 	mov    eax,DWORD PTR [eax*4-0x3fefaf40]
c01028cc:	ff e0                	jmp    eax
c01028ce:	83 4d e4 10          	or     DWORD PTR [ebp-0x1c],0x10
c01028d2:	eb d7                	jmp    c01028ab <vsprintf+0x36>
c01028d4:	83 4d e4 04          	or     DWORD PTR [ebp-0x1c],0x4
c01028d8:	eb d1                	jmp    c01028ab <vsprintf+0x36>
c01028da:	83 4d e4 08          	or     DWORD PTR [ebp-0x1c],0x8
c01028de:	eb cb                	jmp    c01028ab <vsprintf+0x36>
c01028e0:	83 4d e4 20          	or     DWORD PTR [ebp-0x1c],0x20
c01028e4:	eb c5                	jmp    c01028ab <vsprintf+0x36>
c01028e6:	83 4d e4 01          	or     DWORD PTR [ebp-0x1c],0x1
c01028ea:	eb bf                	jmp    c01028ab <vsprintf+0x36>
c01028ec:	c7 45 e0 ff ff ff ff 	mov    DWORD PTR [ebp-0x20],0xffffffff
c01028f3:	8b 45 0c             	mov    eax,DWORD PTR [ebp+0xc]
c01028f6:	0f b6 00             	movzx  eax,BYTE PTR [eax]
c01028f9:	3c 2f                	cmp    al,0x2f
c01028fb:	7e 1a                	jle    c0102917 <vsprintf+0xa2>
c01028fd:	8b 45 0c             	mov    eax,DWORD PTR [ebp+0xc]
c0102900:	0f b6 00             	movzx  eax,BYTE PTR [eax]
c0102903:	3c 39                	cmp    al,0x39
c0102905:	7f 10                	jg     c0102917 <vsprintf+0xa2>
c0102907:	8d 45 0c             	lea    eax,[ebp+0xc]
c010290a:	89 04 24             	mov    DWORD PTR [esp],eax
c010290d:	e8 d4 fc ff ff       	call   c01025e6 <skip_atoi>
c0102912:	89 45 e0             	mov    DWORD PTR [ebp-0x20],eax
c0102915:	eb 25                	jmp    c010293c <vsprintf+0xc7>
c0102917:	8b 45 0c             	mov    eax,DWORD PTR [ebp+0xc]
c010291a:	0f b6 00             	movzx  eax,BYTE PTR [eax]
c010291d:	3c 2a                	cmp    al,0x2a
c010291f:	75 1b                	jne    c010293c <vsprintf+0xc7>
c0102921:	8b 45 10             	mov    eax,DWORD PTR [ebp+0x10]
c0102924:	8d 50 04             	lea    edx,[eax+0x4]
c0102927:	89 55 10             	mov    DWORD PTR [ebp+0x10],edx
c010292a:	8b 00                	mov    eax,DWORD PTR [eax]
c010292c:	89 45 e0             	mov    DWORD PTR [ebp-0x20],eax
c010292f:	83 7d e0 00          	cmp    DWORD PTR [ebp-0x20],0x0
c0102933:	79 07                	jns    c010293c <vsprintf+0xc7>
c0102935:	f7 5d e0             	neg    DWORD PTR [ebp-0x20]
c0102938:	83 4d e4 10          	or     DWORD PTR [ebp-0x1c],0x10
c010293c:	c7 45 dc ff ff ff ff 	mov    DWORD PTR [ebp-0x24],0xffffffff
c0102943:	8b 45 0c             	mov    eax,DWORD PTR [ebp+0xc]
c0102946:	0f b6 00             	movzx  eax,BYTE PTR [eax]
c0102949:	3c 2e                	cmp    al,0x2e
c010294b:	75 52                	jne    c010299f <vsprintf+0x12a>
c010294d:	8b 45 0c             	mov    eax,DWORD PTR [ebp+0xc]
c0102950:	83 c0 01             	add    eax,0x1
c0102953:	89 45 0c             	mov    DWORD PTR [ebp+0xc],eax
c0102956:	8b 45 0c             	mov    eax,DWORD PTR [ebp+0xc]
c0102959:	0f b6 00             	movzx  eax,BYTE PTR [eax]
c010295c:	3c 2f                	cmp    al,0x2f
c010295e:	7e 1a                	jle    c010297a <vsprintf+0x105>
c0102960:	8b 45 0c             	mov    eax,DWORD PTR [ebp+0xc]
c0102963:	0f b6 00             	movzx  eax,BYTE PTR [eax]
c0102966:	3c 39                	cmp    al,0x39
c0102968:	7f 10                	jg     c010297a <vsprintf+0x105>
c010296a:	8d 45 0c             	lea    eax,[ebp+0xc]
c010296d:	89 04 24             	mov    DWORD PTR [esp],eax
c0102970:	e8 71 fc ff ff       	call   c01025e6 <skip_atoi>
c0102975:	89 45 dc             	mov    DWORD PTR [ebp-0x24],eax
c0102978:	eb 18                	jmp    c0102992 <vsprintf+0x11d>
c010297a:	8b 45 0c             	mov    eax,DWORD PTR [ebp+0xc]
c010297d:	0f b6 00             	movzx  eax,BYTE PTR [eax]
c0102980:	3c 2a                	cmp    al,0x2a
c0102982:	75 0e                	jne    c0102992 <vsprintf+0x11d>
c0102984:	8b 45 10             	mov    eax,DWORD PTR [ebp+0x10]
c0102987:	8d 50 04             	lea    edx,[eax+0x4]
c010298a:	89 55 10             	mov    DWORD PTR [ebp+0x10],edx
c010298d:	8b 00                	mov    eax,DWORD PTR [eax]
c010298f:	89 45 dc             	mov    DWORD PTR [ebp-0x24],eax
c0102992:	83 7d dc 00          	cmp    DWORD PTR [ebp-0x24],0x0
c0102996:	79 07                	jns    c010299f <vsprintf+0x12a>
c0102998:	c7 45 dc 00 00 00 00 	mov    DWORD PTR [ebp-0x24],0x0
c010299f:	8b 45 0c             	mov    eax,DWORD PTR [ebp+0xc]
c01029a2:	0f b6 00             	movzx  eax,BYTE PTR [eax]
c01029a5:	3c 68                	cmp    al,0x68
c01029a7:	74 14                	je     c01029bd <vsprintf+0x148>
c01029a9:	8b 45 0c             	mov    eax,DWORD PTR [ebp+0xc]
c01029ac:	0f b6 00             	movzx  eax,BYTE PTR [eax]
c01029af:	3c 6c                	cmp    al,0x6c
c01029b1:	74 0a                	je     c01029bd <vsprintf+0x148>
c01029b3:	8b 45 0c             	mov    eax,DWORD PTR [ebp+0xc]
c01029b6:	0f b6 00             	movzx  eax,BYTE PTR [eax]
c01029b9:	3c 4c                	cmp    al,0x4c
c01029bb:	75 09                	jne    c01029c6 <vsprintf+0x151>
c01029bd:	8b 45 0c             	mov    eax,DWORD PTR [ebp+0xc]
c01029c0:	83 c0 01             	add    eax,0x1
c01029c3:	89 45 0c             	mov    DWORD PTR [ebp+0xc],eax
c01029c6:	8b 45 0c             	mov    eax,DWORD PTR [ebp+0xc]
c01029c9:	0f b6 00             	movzx  eax,BYTE PTR [eax]
c01029cc:	0f be c0             	movsx  eax,al
c01029cf:	83 e8 58             	sub    eax,0x58
c01029d2:	83 f8 20             	cmp    eax,0x20
c01029d5:	0f 87 71 02 00 00    	ja     c0102c4c <vsprintf+0x3d7>
c01029db:	8b 04 85 04 51 10 c0 	mov    eax,DWORD PTR [eax*4-0x3fefaefc]
c01029e2:	ff e0                	jmp    eax
c01029e4:	8b 45 e4             	mov    eax,DWORD PTR [ebp-0x1c]
c01029e7:	83 e0 10             	and    eax,0x10
c01029ea:	85 c0                	test   eax,eax
c01029ec:	75 16                	jne    c0102a04 <vsprintf+0x18f>
c01029ee:	eb 0a                	jmp    c01029fa <vsprintf+0x185>
c01029f0:	8b 45 ec             	mov    eax,DWORD PTR [ebp-0x14]
c01029f3:	c6 00 20             	mov    BYTE PTR [eax],0x20
c01029f6:	83 45 ec 01          	add    DWORD PTR [ebp-0x14],0x1
c01029fa:	83 6d e0 01          	sub    DWORD PTR [ebp-0x20],0x1
c01029fe:	83 7d e0 00          	cmp    DWORD PTR [ebp-0x20],0x0
c0102a02:	7f ec                	jg     c01029f0 <vsprintf+0x17b>
c0102a04:	8b 45 10             	mov    eax,DWORD PTR [ebp+0x10]
c0102a07:	8d 50 04             	lea    edx,[eax+0x4]
c0102a0a:	89 55 10             	mov    DWORD PTR [ebp+0x10],edx
c0102a0d:	8b 00                	mov    eax,DWORD PTR [eax]
c0102a0f:	89 c2                	mov    edx,eax
c0102a11:	8b 45 ec             	mov    eax,DWORD PTR [ebp-0x14]
c0102a14:	88 10                	mov    BYTE PTR [eax],dl
c0102a16:	83 45 ec 01          	add    DWORD PTR [ebp-0x14],0x1
c0102a1a:	eb 0a                	jmp    c0102a26 <vsprintf+0x1b1>
c0102a1c:	8b 45 ec             	mov    eax,DWORD PTR [ebp-0x14]
c0102a1f:	c6 00 20             	mov    BYTE PTR [eax],0x20
c0102a22:	83 45 ec 01          	add    DWORD PTR [ebp-0x14],0x1
c0102a26:	83 6d e0 01          	sub    DWORD PTR [ebp-0x20],0x1
c0102a2a:	83 7d e0 00          	cmp    DWORD PTR [ebp-0x20],0x0
c0102a2e:	7f ec                	jg     c0102a1c <vsprintf+0x1a7>
c0102a30:	e9 50 02 00 00       	jmp    c0102c85 <vsprintf+0x410>
c0102a35:	8b 45 10             	mov    eax,DWORD PTR [ebp+0x10]
c0102a38:	8d 50 04             	lea    edx,[eax+0x4]
c0102a3b:	89 55 10             	mov    DWORD PTR [ebp+0x10],edx
c0102a3e:	8b 00                	mov    eax,DWORD PTR [eax]
c0102a40:	89 45 e8             	mov    DWORD PTR [ebp-0x18],eax
c0102a43:	8b 45 e8             	mov    eax,DWORD PTR [ebp-0x18]
c0102a46:	89 04 24             	mov    DWORD PTR [esp],eax
c0102a49:	e8 a3 22 00 00       	call   c0104cf1 <strlen>
c0102a4e:	89 45 f4             	mov    DWORD PTR [ebp-0xc],eax
c0102a51:	83 7d dc 00          	cmp    DWORD PTR [ebp-0x24],0x0
c0102a55:	79 08                	jns    c0102a5f <vsprintf+0x1ea>
c0102a57:	8b 45 f4             	mov    eax,DWORD PTR [ebp-0xc]
c0102a5a:	89 45 dc             	mov    DWORD PTR [ebp-0x24],eax
c0102a5d:	eb 0e                	jmp    c0102a6d <vsprintf+0x1f8>
c0102a5f:	8b 45 f4             	mov    eax,DWORD PTR [ebp-0xc]
c0102a62:	3b 45 dc             	cmp    eax,DWORD PTR [ebp-0x24]
c0102a65:	7e 06                	jle    c0102a6d <vsprintf+0x1f8>
c0102a67:	8b 45 dc             	mov    eax,DWORD PTR [ebp-0x24]
c0102a6a:	89 45 f4             	mov    DWORD PTR [ebp-0xc],eax
c0102a6d:	8b 45 e4             	mov    eax,DWORD PTR [ebp-0x1c]
c0102a70:	83 e0 10             	and    eax,0x10
c0102a73:	85 c0                	test   eax,eax
c0102a75:	75 1d                	jne    c0102a94 <vsprintf+0x21f>
c0102a77:	eb 0a                	jmp    c0102a83 <vsprintf+0x20e>
c0102a79:	8b 45 ec             	mov    eax,DWORD PTR [ebp-0x14]
c0102a7c:	c6 00 20             	mov    BYTE PTR [eax],0x20
c0102a7f:	83 45 ec 01          	add    DWORD PTR [ebp-0x14],0x1
c0102a83:	8b 45 e0             	mov    eax,DWORD PTR [ebp-0x20]
c0102a86:	3b 45 f4             	cmp    eax,DWORD PTR [ebp-0xc]
c0102a89:	0f 9f c0             	setg   al
c0102a8c:	83 6d e0 01          	sub    DWORD PTR [ebp-0x20],0x1
c0102a90:	84 c0                	test   al,al
c0102a92:	75 e5                	jne    c0102a79 <vsprintf+0x204>
c0102a94:	c7 45 f0 00 00 00 00 	mov    DWORD PTR [ebp-0x10],0x0
c0102a9b:	eb 17                	jmp    c0102ab4 <vsprintf+0x23f>
c0102a9d:	8b 45 e8             	mov    eax,DWORD PTR [ebp-0x18]
c0102aa0:	0f b6 10             	movzx  edx,BYTE PTR [eax]
c0102aa3:	8b 45 ec             	mov    eax,DWORD PTR [ebp-0x14]
c0102aa6:	88 10                	mov    BYTE PTR [eax],dl
c0102aa8:	83 45 ec 01          	add    DWORD PTR [ebp-0x14],0x1
c0102aac:	83 45 e8 01          	add    DWORD PTR [ebp-0x18],0x1
c0102ab0:	83 45 f0 01          	add    DWORD PTR [ebp-0x10],0x1
c0102ab4:	8b 45 f0             	mov    eax,DWORD PTR [ebp-0x10]
c0102ab7:	3b 45 f4             	cmp    eax,DWORD PTR [ebp-0xc]
c0102aba:	7c e1                	jl     c0102a9d <vsprintf+0x228>
c0102abc:	eb 0a                	jmp    c0102ac8 <vsprintf+0x253>
c0102abe:	8b 45 ec             	mov    eax,DWORD PTR [ebp-0x14]
c0102ac1:	c6 00 20             	mov    BYTE PTR [eax],0x20
c0102ac4:	83 45 ec 01          	add    DWORD PTR [ebp-0x14],0x1
c0102ac8:	8b 45 e0             	mov    eax,DWORD PTR [ebp-0x20]
c0102acb:	3b 45 f4             	cmp    eax,DWORD PTR [ebp-0xc]
c0102ace:	0f 9f c0             	setg   al
c0102ad1:	83 6d e0 01          	sub    DWORD PTR [ebp-0x20],0x1
c0102ad5:	84 c0                	test   al,al
c0102ad7:	75 e5                	jne    c0102abe <vsprintf+0x249>
c0102ad9:	e9 a7 01 00 00       	jmp    c0102c85 <vsprintf+0x410>
c0102ade:	8b 45 10             	mov    eax,DWORD PTR [ebp+0x10]
c0102ae1:	8d 50 04             	lea    edx,[eax+0x4]
c0102ae4:	89 55 10             	mov    DWORD PTR [ebp+0x10],edx
c0102ae7:	8b 00                	mov    eax,DWORD PTR [eax]
c0102ae9:	8b 55 e4             	mov    edx,DWORD PTR [ebp-0x1c]
c0102aec:	89 54 24 14          	mov    DWORD PTR [esp+0x14],edx
c0102af0:	8b 55 dc             	mov    edx,DWORD PTR [ebp-0x24]
c0102af3:	89 54 24 10          	mov    DWORD PTR [esp+0x10],edx
c0102af7:	8b 55 e0             	mov    edx,DWORD PTR [ebp-0x20]
c0102afa:	89 54 24 0c          	mov    DWORD PTR [esp+0xc],edx
c0102afe:	c7 44 24 08 08 00 00 	mov    DWORD PTR [esp+0x8],0x8
c0102b05:	00 
c0102b06:	89 44 24 04          	mov    DWORD PTR [esp+0x4],eax
c0102b0a:	8b 45 ec             	mov    eax,DWORD PTR [ebp-0x14]
c0102b0d:	89 04 24             	mov    DWORD PTR [esp],eax
c0102b10:	e8 26 fb ff ff       	call   c010263b <number>
c0102b15:	89 45 ec             	mov    DWORD PTR [ebp-0x14],eax
c0102b18:	e9 68 01 00 00       	jmp    c0102c85 <vsprintf+0x410>
c0102b1d:	83 7d e0 ff          	cmp    DWORD PTR [ebp-0x20],0xffffffff
c0102b21:	75 0b                	jne    c0102b2e <vsprintf+0x2b9>
c0102b23:	c7 45 e0 08 00 00 00 	mov    DWORD PTR [ebp-0x20],0x8
c0102b2a:	83 4d e4 01          	or     DWORD PTR [ebp-0x1c],0x1
c0102b2e:	8b 45 10             	mov    eax,DWORD PTR [ebp+0x10]
c0102b31:	8d 50 04             	lea    edx,[eax+0x4]
c0102b34:	89 55 10             	mov    DWORD PTR [ebp+0x10],edx
c0102b37:	8b 00                	mov    eax,DWORD PTR [eax]
c0102b39:	8b 55 e4             	mov    edx,DWORD PTR [ebp-0x1c]
c0102b3c:	89 54 24 14          	mov    DWORD PTR [esp+0x14],edx
c0102b40:	8b 55 dc             	mov    edx,DWORD PTR [ebp-0x24]
c0102b43:	89 54 24 10          	mov    DWORD PTR [esp+0x10],edx
c0102b47:	8b 55 e0             	mov    edx,DWORD PTR [ebp-0x20]
c0102b4a:	89 54 24 0c          	mov    DWORD PTR [esp+0xc],edx
c0102b4e:	c7 44 24 08 10 00 00 	mov    DWORD PTR [esp+0x8],0x10
c0102b55:	00 
c0102b56:	89 44 24 04          	mov    DWORD PTR [esp+0x4],eax
c0102b5a:	8b 45 ec             	mov    eax,DWORD PTR [ebp-0x14]
c0102b5d:	89 04 24             	mov    DWORD PTR [esp],eax
c0102b60:	e8 d6 fa ff ff       	call   c010263b <number>
c0102b65:	89 45 ec             	mov    DWORD PTR [ebp-0x14],eax
c0102b68:	e9 18 01 00 00       	jmp    c0102c85 <vsprintf+0x410>
c0102b6d:	83 4d e4 40          	or     DWORD PTR [ebp-0x1c],0x40
c0102b71:	8b 45 10             	mov    eax,DWORD PTR [ebp+0x10]
c0102b74:	8d 50 04             	lea    edx,[eax+0x4]
c0102b77:	89 55 10             	mov    DWORD PTR [ebp+0x10],edx
c0102b7a:	8b 00                	mov    eax,DWORD PTR [eax]
c0102b7c:	8b 55 e4             	mov    edx,DWORD PTR [ebp-0x1c]
c0102b7f:	89 54 24 14          	mov    DWORD PTR [esp+0x14],edx
c0102b83:	8b 55 dc             	mov    edx,DWORD PTR [ebp-0x24]
c0102b86:	89 54 24 10          	mov    DWORD PTR [esp+0x10],edx
c0102b8a:	8b 55 e0             	mov    edx,DWORD PTR [ebp-0x20]
c0102b8d:	89 54 24 0c          	mov    DWORD PTR [esp+0xc],edx
c0102b91:	c7 44 24 08 10 00 00 	mov    DWORD PTR [esp+0x8],0x10
c0102b98:	00 
c0102b99:	89 44 24 04          	mov    DWORD PTR [esp+0x4],eax
c0102b9d:	8b 45 ec             	mov    eax,DWORD PTR [ebp-0x14]
c0102ba0:	89 04 24             	mov    DWORD PTR [esp],eax
c0102ba3:	e8 93 fa ff ff       	call   c010263b <number>
c0102ba8:	89 45 ec             	mov    DWORD PTR [ebp-0x14],eax
c0102bab:	e9 d5 00 00 00       	jmp    c0102c85 <vsprintf+0x410>
c0102bb0:	83 4d e4 02          	or     DWORD PTR [ebp-0x1c],0x2
c0102bb4:	8b 45 10             	mov    eax,DWORD PTR [ebp+0x10]
c0102bb7:	8d 50 04             	lea    edx,[eax+0x4]
c0102bba:	89 55 10             	mov    DWORD PTR [ebp+0x10],edx
c0102bbd:	8b 00                	mov    eax,DWORD PTR [eax]
c0102bbf:	8b 55 e4             	mov    edx,DWORD PTR [ebp-0x1c]
c0102bc2:	89 54 24 14          	mov    DWORD PTR [esp+0x14],edx
c0102bc6:	8b 55 dc             	mov    edx,DWORD PTR [ebp-0x24]
c0102bc9:	89 54 24 10          	mov    DWORD PTR [esp+0x10],edx
c0102bcd:	8b 55 e0             	mov    edx,DWORD PTR [ebp-0x20]
c0102bd0:	89 54 24 0c          	mov    DWORD PTR [esp+0xc],edx
c0102bd4:	c7 44 24 08 0a 00 00 	mov    DWORD PTR [esp+0x8],0xa
c0102bdb:	00 
c0102bdc:	89 44 24 04          	mov    DWORD PTR [esp+0x4],eax
c0102be0:	8b 45 ec             	mov    eax,DWORD PTR [ebp-0x14]
c0102be3:	89 04 24             	mov    DWORD PTR [esp],eax
c0102be6:	e8 50 fa ff ff       	call   c010263b <number>
c0102beb:	89 45 ec             	mov    DWORD PTR [ebp-0x14],eax
c0102bee:	e9 92 00 00 00       	jmp    c0102c85 <vsprintf+0x410>
c0102bf3:	8b 45 10             	mov    eax,DWORD PTR [ebp+0x10]
c0102bf6:	8d 50 04             	lea    edx,[eax+0x4]
c0102bf9:	89 55 10             	mov    DWORD PTR [ebp+0x10],edx
c0102bfc:	8b 00                	mov    eax,DWORD PTR [eax]
c0102bfe:	8b 55 e4             	mov    edx,DWORD PTR [ebp-0x1c]
c0102c01:	89 54 24 14          	mov    DWORD PTR [esp+0x14],edx
c0102c05:	8b 55 dc             	mov    edx,DWORD PTR [ebp-0x24]
c0102c08:	89 54 24 10          	mov    DWORD PTR [esp+0x10],edx
c0102c0c:	8b 55 e0             	mov    edx,DWORD PTR [ebp-0x20]
c0102c0f:	89 54 24 0c          	mov    DWORD PTR [esp+0xc],edx
c0102c13:	c7 44 24 08 02 00 00 	mov    DWORD PTR [esp+0x8],0x2
c0102c1a:	00 
c0102c1b:	89 44 24 04          	mov    DWORD PTR [esp+0x4],eax
c0102c1f:	8b 45 ec             	mov    eax,DWORD PTR [ebp-0x14]
c0102c22:	89 04 24             	mov    DWORD PTR [esp],eax
c0102c25:	e8 11 fa ff ff       	call   c010263b <number>
c0102c2a:	89 45 ec             	mov    DWORD PTR [ebp-0x14],eax
c0102c2d:	eb 56                	jmp    c0102c85 <vsprintf+0x410>
c0102c2f:	8b 45 10             	mov    eax,DWORD PTR [ebp+0x10]
c0102c32:	8d 50 04             	lea    edx,[eax+0x4]
c0102c35:	89 55 10             	mov    DWORD PTR [ebp+0x10],edx
c0102c38:	8b 00                	mov    eax,DWORD PTR [eax]
c0102c3a:	89 45 d8             	mov    DWORD PTR [ebp-0x28],eax
c0102c3d:	8b 55 ec             	mov    edx,DWORD PTR [ebp-0x14]
c0102c40:	8b 45 08             	mov    eax,DWORD PTR [ebp+0x8]
c0102c43:	29 c2                	sub    edx,eax
c0102c45:	8b 45 d8             	mov    eax,DWORD PTR [ebp-0x28]
c0102c48:	89 10                	mov    DWORD PTR [eax],edx
c0102c4a:	eb 39                	jmp    c0102c85 <vsprintf+0x410>
c0102c4c:	8b 45 0c             	mov    eax,DWORD PTR [ebp+0xc]
c0102c4f:	0f b6 00             	movzx  eax,BYTE PTR [eax]
c0102c52:	3c 25                	cmp    al,0x25
c0102c54:	74 0a                	je     c0102c60 <vsprintf+0x3eb>
c0102c56:	8b 45 ec             	mov    eax,DWORD PTR [ebp-0x14]
c0102c59:	c6 00 25             	mov    BYTE PTR [eax],0x25
c0102c5c:	83 45 ec 01          	add    DWORD PTR [ebp-0x14],0x1
c0102c60:	8b 45 0c             	mov    eax,DWORD PTR [ebp+0xc]
c0102c63:	0f b6 00             	movzx  eax,BYTE PTR [eax]
c0102c66:	84 c0                	test   al,al
c0102c68:	74 11                	je     c0102c7b <vsprintf+0x406>
c0102c6a:	8b 45 0c             	mov    eax,DWORD PTR [ebp+0xc]
c0102c6d:	0f b6 10             	movzx  edx,BYTE PTR [eax]
c0102c70:	8b 45 ec             	mov    eax,DWORD PTR [ebp-0x14]
c0102c73:	88 10                	mov    BYTE PTR [eax],dl
c0102c75:	83 45 ec 01          	add    DWORD PTR [ebp-0x14],0x1
c0102c79:	eb 09                	jmp    c0102c84 <vsprintf+0x40f>
c0102c7b:	8b 45 0c             	mov    eax,DWORD PTR [ebp+0xc]
c0102c7e:	83 e8 01             	sub    eax,0x1
c0102c81:	89 45 0c             	mov    DWORD PTR [ebp+0xc],eax
c0102c84:	90                   	nop
c0102c85:	8b 45 0c             	mov    eax,DWORD PTR [ebp+0xc]
c0102c88:	83 c0 01             	add    eax,0x1
c0102c8b:	89 45 0c             	mov    DWORD PTR [ebp+0xc],eax
c0102c8e:	8b 45 0c             	mov    eax,DWORD PTR [ebp+0xc]
c0102c91:	0f b6 00             	movzx  eax,BYTE PTR [eax]
c0102c94:	84 c0                	test   al,al
c0102c96:	0f 85 ea fb ff ff    	jne    c0102886 <vsprintf+0x11>
c0102c9c:	8b 45 ec             	mov    eax,DWORD PTR [ebp-0x14]
c0102c9f:	c6 00 00             	mov    BYTE PTR [eax],0x0
c0102ca2:	8b 55 ec             	mov    edx,DWORD PTR [ebp-0x14]
c0102ca5:	8b 45 08             	mov    eax,DWORD PTR [ebp+0x8]
c0102ca8:	89 d1                	mov    ecx,edx
c0102caa:	29 c1                	sub    ecx,eax
c0102cac:	89 c8                	mov    eax,ecx
c0102cae:	c9                   	leave  
c0102caf:	c3                   	ret    

c0102cb0 <init_debug>:
c0102cb0:	55                   	push   ebp
c0102cb1:	89 e5                	mov    ebp,esp
c0102cb3:	83 ec 28             	sub    esp,0x28
c0102cb6:	8b 15 04 80 20 c0    	mov    edx,DWORD PTR ds:0xc0208004
c0102cbc:	8d 45 e8             	lea    eax,[ebp-0x18]
c0102cbf:	89 54 24 04          	mov    DWORD PTR [esp+0x4],edx
c0102cc3:	89 04 24             	mov    DWORD PTR [esp],eax
c0102cc6:	e8 b5 f6 ff ff       	call   c0102380 <elf_from_multiboot>
c0102ccb:	83 ec 04             	sub    esp,0x4
c0102cce:	8b 45 e8             	mov    eax,DWORD PTR [ebp-0x18]
c0102cd1:	a3 20 68 10 c0       	mov    ds:0xc0106820,eax
c0102cd6:	8b 45 ec             	mov    eax,DWORD PTR [ebp-0x14]
c0102cd9:	a3 24 68 10 c0       	mov    ds:0xc0106824,eax
c0102cde:	8b 45 f0             	mov    eax,DWORD PTR [ebp-0x10]
c0102ce1:	a3 28 68 10 c0       	mov    ds:0xc0106828,eax
c0102ce6:	8b 45 f4             	mov    eax,DWORD PTR [ebp-0xc]
c0102ce9:	a3 2c 68 10 c0       	mov    ds:0xc010682c,eax
c0102cee:	c9                   	leave  
c0102cef:	c3                   	ret    

c0102cf0 <print_cur_status>:
c0102cf0:	55                   	push   ebp
c0102cf1:	89 e5                	mov    ebp,esp
c0102cf3:	83 ec 28             	sub    esp,0x28
c0102cf6:	8c 4d f6             	mov    WORD PTR [ebp-0xa],cs
c0102cf9:	8c 5d f4             	mov    WORD PTR [ebp-0xc],ds
c0102cfc:	8c 45 f2             	mov    WORD PTR [ebp-0xe],es
c0102cff:	8c 55 f0             	mov    WORD PTR [ebp-0x10],ss
c0102d02:	0f b7 45 f6          	movzx  eax,WORD PTR [ebp-0xa]
c0102d06:	0f b7 c0             	movzx  eax,ax
c0102d09:	89 c2                	mov    edx,eax
c0102d0b:	83 e2 03             	and    edx,0x3
c0102d0e:	a1 30 68 10 c0       	mov    eax,ds:0xc0106830
c0102d13:	89 54 24 08          	mov    DWORD PTR [esp+0x8],edx
c0102d17:	89 44 24 04          	mov    DWORD PTR [esp+0x4],eax
c0102d1b:	c7 04 24 88 51 10 c0 	mov    DWORD PTR [esp],0xc0105188
c0102d22:	e8 2d f8 ff ff       	call   c0102554 <printk>
c0102d27:	0f b7 45 f6          	movzx  eax,WORD PTR [ebp-0xa]
c0102d2b:	0f b7 d0             	movzx  edx,ax
c0102d2e:	a1 30 68 10 c0       	mov    eax,ds:0xc0106830
c0102d33:	89 54 24 08          	mov    DWORD PTR [esp+0x8],edx
c0102d37:	89 44 24 04          	mov    DWORD PTR [esp+0x4],eax
c0102d3b:	c7 04 24 96 51 10 c0 	mov    DWORD PTR [esp],0xc0105196
c0102d42:	e8 0d f8 ff ff       	call   c0102554 <printk>
c0102d47:	0f b7 45 f4          	movzx  eax,WORD PTR [ebp-0xc]
c0102d4b:	0f b7 d0             	movzx  edx,ax
c0102d4e:	a1 30 68 10 c0       	mov    eax,ds:0xc0106830
c0102d53:	89 54 24 08          	mov    DWORD PTR [esp+0x8],edx
c0102d57:	89 44 24 04          	mov    DWORD PTR [esp+0x4],eax
c0102d5b:	c7 04 24 a4 51 10 c0 	mov    DWORD PTR [esp],0xc01051a4
c0102d62:	e8 ed f7 ff ff       	call   c0102554 <printk>
c0102d67:	0f b7 45 f2          	movzx  eax,WORD PTR [ebp-0xe]
c0102d6b:	0f b7 d0             	movzx  edx,ax
c0102d6e:	a1 30 68 10 c0       	mov    eax,ds:0xc0106830
c0102d73:	89 54 24 08          	mov    DWORD PTR [esp+0x8],edx
c0102d77:	89 44 24 04          	mov    DWORD PTR [esp+0x4],eax
c0102d7b:	c7 04 24 b2 51 10 c0 	mov    DWORD PTR [esp],0xc01051b2
c0102d82:	e8 cd f7 ff ff       	call   c0102554 <printk>
c0102d87:	0f b7 45 f0          	movzx  eax,WORD PTR [ebp-0x10]
c0102d8b:	0f b7 d0             	movzx  edx,ax
c0102d8e:	a1 30 68 10 c0       	mov    eax,ds:0xc0106830
c0102d93:	89 54 24 08          	mov    DWORD PTR [esp+0x8],edx
c0102d97:	89 44 24 04          	mov    DWORD PTR [esp+0x4],eax
c0102d9b:	c7 04 24 c0 51 10 c0 	mov    DWORD PTR [esp],0xc01051c0
c0102da2:	e8 ad f7 ff ff       	call   c0102554 <printk>
c0102da7:	a1 30 68 10 c0       	mov    eax,ds:0xc0106830
c0102dac:	83 c0 01             	add    eax,0x1
c0102daf:	a3 30 68 10 c0       	mov    ds:0xc0106830,eax
c0102db4:	c9                   	leave  
c0102db5:	c3                   	ret    

c0102db6 <panic>:
c0102db6:	55                   	push   ebp
c0102db7:	89 e5                	mov    ebp,esp
c0102db9:	83 ec 18             	sub    esp,0x18
c0102dbc:	8b 45 08             	mov    eax,DWORD PTR [ebp+0x8]
c0102dbf:	89 44 24 04          	mov    DWORD PTR [esp+0x4],eax
c0102dc3:	c7 04 24 ce 51 10 c0 	mov    DWORD PTR [esp],0xc01051ce
c0102dca:	e8 85 f7 ff ff       	call   c0102554 <printk>
c0102dcf:	e8 0e 00 00 00       	call   c0102de2 <print_stack_trace>
c0102dd4:	c7 04 24 e4 51 10 c0 	mov    DWORD PTR [esp],0xc01051e4
c0102ddb:	e8 74 f7 ff ff       	call   c0102554 <printk>
c0102de0:	eb fe                	jmp    c0102de0 <panic+0x2a>

c0102de2 <print_stack_trace>:
c0102de2:	55                   	push   ebp
c0102de3:	89 e5                	mov    ebp,esp
c0102de5:	53                   	push   ebx
c0102de6:	83 ec 24             	sub    esp,0x24
c0102de9:	89 eb                	mov    ebx,ebp
c0102deb:	89 5d f4             	mov    DWORD PTR [ebp-0xc],ebx
c0102dee:	eb 3f                	jmp    c0102e2f <print_stack_trace+0x4d>
c0102df0:	8b 45 f4             	mov    eax,DWORD PTR [ebp-0xc]
c0102df3:	83 c0 04             	add    eax,0x4
c0102df6:	89 45 f0             	mov    DWORD PTR [ebp-0x10],eax
c0102df9:	8b 45 f0             	mov    eax,DWORD PTR [ebp-0x10]
c0102dfc:	8b 00                	mov    eax,DWORD PTR [eax]
c0102dfe:	c7 44 24 04 20 68 10 	mov    DWORD PTR [esp+0x4],0xc0106820
c0102e05:	c0 
c0102e06:	89 04 24             	mov    DWORD PTR [esp],eax
c0102e09:	e8 a3 f6 ff ff       	call   c01024b1 <elf_lookup_symbol>
c0102e0e:	8b 55 f0             	mov    edx,DWORD PTR [ebp-0x10]
c0102e11:	8b 12                	mov    edx,DWORD PTR [edx]
c0102e13:	89 44 24 08          	mov    DWORD PTR [esp+0x8],eax
c0102e17:	89 54 24 04          	mov    DWORD PTR [esp+0x4],edx
c0102e1b:	c7 04 24 e9 51 10 c0 	mov    DWORD PTR [esp],0xc01051e9
c0102e22:	e8 2d f7 ff ff       	call   c0102554 <printk>
c0102e27:	8b 45 f4             	mov    eax,DWORD PTR [ebp-0xc]
c0102e2a:	8b 00                	mov    eax,DWORD PTR [eax]
c0102e2c:	89 45 f4             	mov    DWORD PTR [ebp-0xc],eax
c0102e2f:	83 7d f4 00          	cmp    DWORD PTR [ebp-0xc],0x0
c0102e33:	75 bb                	jne    c0102df0 <print_stack_trace+0xe>
c0102e35:	83 c4 24             	add    esp,0x24
c0102e38:	5b                   	pop    ebx
c0102e39:	5d                   	pop    ebp
c0102e3a:	c3                   	ret    
c0102e3b:	90                   	nop

c0102e3c <init_sched>:
c0102e3c:	55                   	push   ebp
c0102e3d:	89 e5                	mov    ebp,esp
c0102e3f:	a1 10 a0 20 c0       	mov    eax,ds:0xc020a010
c0102e44:	2d 00 20 00 00       	sub    eax,0x2000
c0102e49:	a3 3c 68 10 c0       	mov    ds:0xc010683c,eax
c0102e4e:	a1 3c 68 10 c0       	mov    eax,ds:0xc010683c
c0102e53:	c7 00 02 00 00 00    	mov    DWORD PTR [eax],0x2
c0102e59:	8b 15 3c 68 10 c0    	mov    edx,DWORD PTR ds:0xc010683c
c0102e5f:	a1 00 60 10 c0       	mov    eax,ds:0xc0106000
c0102e64:	89 42 04             	mov    DWORD PTR [edx+0x4],eax
c0102e67:	83 c0 01             	add    eax,0x1
c0102e6a:	a3 00 60 10 c0       	mov    ds:0xc0106000,eax
c0102e6f:	a1 3c 68 10 c0       	mov    eax,ds:0xc010683c
c0102e74:	8b 15 3c 68 10 c0    	mov    edx,DWORD PTR ds:0xc010683c
c0102e7a:	89 50 08             	mov    DWORD PTR [eax+0x8],edx
c0102e7d:	a1 3c 68 10 c0       	mov    eax,ds:0xc010683c
c0102e82:	c7 40 0c 00 00 00 00 	mov    DWORD PTR [eax+0xc],0x0
c0102e89:	a1 3c 68 10 c0       	mov    eax,ds:0xc010683c
c0102e8e:	8b 15 3c 68 10 c0    	mov    edx,DWORD PTR ds:0xc010683c
c0102e94:	89 50 28             	mov    DWORD PTR [eax+0x28],edx
c0102e97:	a1 3c 68 10 c0       	mov    eax,ds:0xc010683c
c0102e9c:	a3 34 68 10 c0       	mov    ds:0xc0106834,eax
c0102ea1:	5d                   	pop    ebp
c0102ea2:	c3                   	ret    

c0102ea3 <schedule>:
c0102ea3:	55                   	push   ebp
c0102ea4:	89 e5                	mov    ebp,esp
c0102ea6:	83 ec 18             	sub    esp,0x18
c0102ea9:	a1 3c 68 10 c0       	mov    eax,ds:0xc010683c
c0102eae:	85 c0                	test   eax,eax
c0102eb0:	74 10                	je     c0102ec2 <schedule+0x1f>
c0102eb2:	a1 3c 68 10 c0       	mov    eax,ds:0xc010683c
c0102eb7:	8b 40 28             	mov    eax,DWORD PTR [eax+0x28]
c0102eba:	89 04 24             	mov    DWORD PTR [esp],eax
c0102ebd:	e8 02 00 00 00       	call   c0102ec4 <change_task_to>
c0102ec2:	c9                   	leave  
c0102ec3:	c3                   	ret    

c0102ec4 <change_task_to>:
c0102ec4:	55                   	push   ebp
c0102ec5:	89 e5                	mov    ebp,esp
c0102ec7:	83 ec 28             	sub    esp,0x28
c0102eca:	a1 3c 68 10 c0       	mov    eax,ds:0xc010683c
c0102ecf:	3b 45 08             	cmp    eax,DWORD PTR [ebp+0x8]
c0102ed2:	74 2a                	je     c0102efe <change_task_to+0x3a>
c0102ed4:	a1 3c 68 10 c0       	mov    eax,ds:0xc010683c
c0102ed9:	89 45 f4             	mov    DWORD PTR [ebp-0xc],eax
c0102edc:	8b 45 08             	mov    eax,DWORD PTR [ebp+0x8]
c0102edf:	a3 3c 68 10 c0       	mov    ds:0xc010683c,eax
c0102ee4:	a1 3c 68 10 c0       	mov    eax,ds:0xc010683c
c0102ee9:	8d 50 10             	lea    edx,[eax+0x10]
c0102eec:	8b 45 f4             	mov    eax,DWORD PTR [ebp-0xc]
c0102eef:	83 c0 10             	add    eax,0x10
c0102ef2:	89 54 24 04          	mov    DWORD PTR [esp+0x4],edx
c0102ef6:	89 04 24             	mov    DWORD PTR [esp],eax
c0102ef9:	e8 02 f1 ff ff       	call   c0102000 <switch_to>
c0102efe:	c9                   	leave  
c0102eff:	c3                   	ret    

c0102f00 <spinlock_lock>:
c0102f00:	55                   	push   ebp
c0102f01:	89 e5                	mov    ebp,esp
c0102f03:	8b 45 08             	mov    eax,DWORD PTR [ebp+0x8]
c0102f06:	f0 fe 08             	lock dec BYTE PTR [eax]
c0102f09:	0f 88 f1 20 00 00    	js     c0105000 <disable_intr+0x262>
c0102f0f:	5d                   	pop    ebp
c0102f10:	c3                   	ret    

c0102f11 <spinlock_unlock>:
c0102f11:	55                   	push   ebp
c0102f12:	89 e5                	mov    ebp,esp
c0102f14:	8b 45 08             	mov    eax,DWORD PTR [ebp+0x8]
c0102f17:	c6 00 01             	mov    BYTE PTR [eax],0x1
c0102f1a:	5d                   	pop    ebp
c0102f1b:	c3                   	ret    

c0102f1c <thread>:
c0102f1c:	55                   	push   ebp
c0102f1d:	89 e5                	mov    ebp,esp
c0102f1f:	83 ec 18             	sub    esp,0x18
c0102f22:	eb 01                	jmp    c0102f25 <thread+0x9>
c0102f24:	90                   	nop
c0102f25:	a1 40 68 10 c0       	mov    eax,ds:0xc0106840
c0102f2a:	83 f8 01             	cmp    eax,0x1
c0102f2d:	75 f5                	jne    c0102f24 <thread+0x8>
c0102f2f:	c7 44 24 08 f8 51 10 	mov    DWORD PTR [esp+0x8],0xc01051f8
c0102f36:	c0 
c0102f37:	c7 44 24 04 02 00 00 	mov    DWORD PTR [esp+0x4],0x2
c0102f3e:	00 
c0102f3f:	c7 04 24 00 00 00 00 	mov    DWORD PTR [esp],0x0
c0102f46:	e8 4b f6 ff ff       	call   c0102596 <printk_color>
c0102f4b:	c7 04 24 00 80 20 c0 	mov    DWORD PTR [esp],0xc0208000
c0102f52:	e8 a9 ff ff ff       	call   c0102f00 <spinlock_lock>
c0102f57:	c7 05 40 68 10 c0 00 	mov    DWORD PTR ds:0xc0106840,0x0
c0102f5e:	00 00 00 
c0102f61:	c7 04 24 00 80 20 c0 	mov    DWORD PTR [esp],0xc0208000
c0102f68:	e8 a4 ff ff ff       	call   c0102f11 <spinlock_unlock>
c0102f6d:	eb b5                	jmp    c0102f24 <thread+0x8>

c0102f6f <kern_init>:
c0102f6f:	55                   	push   ebp
c0102f70:	89 e5                	mov    ebp,esp
c0102f72:	83 ec 18             	sub    esp,0x18
c0102f75:	e8 36 fd ff ff       	call   c0102cb0 <init_debug>
c0102f7a:	e8 f5 05 00 00       	call   c0103574 <init_gdt>
c0102f7f:	e8 64 08 00 00       	call   c01037e8 <init_idt>
c0102f84:	e8 73 02 00 00       	call   c01031fc <console_clear>
c0102f89:	c7 44 24 08 fa 51 10 	mov    DWORD PTR [esp+0x8],0xc01051fa
c0102f90:	c0 
c0102f91:	c7 44 24 04 02 00 00 	mov    DWORD PTR [esp+0x4],0x2
c0102f98:	00 
c0102f99:	c7 04 24 00 00 00 00 	mov    DWORD PTR [esp],0x0
c0102fa0:	e8 f1 f5 ff ff       	call   c0102596 <printk_color>
c0102fa5:	c7 04 24 c8 00 00 00 	mov    DWORD PTR [esp],0xc8
c0102fac:	e8 c0 00 00 00       	call   c0103071 <init_timer>
c0102fb1:	c7 44 24 04 00 00 10 	mov    DWORD PTR [esp+0x4],0xc0100000
c0102fb8:	c0 
c0102fb9:	c7 04 24 10 52 10 c0 	mov    DWORD PTR [esp],0xc0105210
c0102fc0:	e8 8f f5 ff ff       	call   c0102554 <printk>
c0102fc5:	c7 44 24 04 00 60 21 	mov    DWORD PTR [esp+0x4],0xc0216000
c0102fcc:	c0 
c0102fcd:	c7 04 24 30 52 10 c0 	mov    DWORD PTR [esp],0xc0105230
c0102fd4:	e8 7b f5 ff ff       	call   c0102554 <printk>
c0102fd9:	ba 00 60 21 c0       	mov    edx,0xc0216000
c0102fde:	b8 00 00 10 c0       	mov    eax,0xc0100000
c0102fe3:	89 d1                	mov    ecx,edx
c0102fe5:	29 c1                	sub    ecx,eax
c0102fe7:	89 c8                	mov    eax,ecx
c0102fe9:	8d 90 ff 03 00 00    	lea    edx,[eax+0x3ff]
c0102fef:	85 c0                	test   eax,eax
c0102ff1:	0f 48 c2             	cmovs  eax,edx
c0102ff4:	c1 f8 0a             	sar    eax,0xa
c0102ff7:	89 44 24 04          	mov    DWORD PTR [esp+0x4],eax
c0102ffb:	c7 04 24 50 52 10 c0 	mov    DWORD PTR [esp],0xc0105250
c0103002:	e8 4d f5 ff ff       	call   c0102554 <printk>
c0103007:	e8 20 13 00 00       	call   c010432c <init_pmm>
c010300c:	e8 47 14 00 00       	call   c0104458 <init_vmm>
c0103011:	e8 a6 16 00 00       	call   c01046bc <init_heap>
c0103016:	a1 00 ad 20 c0       	mov    eax,ds:0xc020ad00
c010301b:	89 44 24 0c          	mov    DWORD PTR [esp+0xc],eax
c010301f:	c7 44 24 08 74 52 10 	mov    DWORD PTR [esp+0x8],0xc0105274
c0103026:	c0 
c0103027:	c7 44 24 04 04 00 00 	mov    DWORD PTR [esp+0x4],0x4
c010302e:	00 
c010302f:	c7 04 24 00 00 00 00 	mov    DWORD PTR [esp],0x0
c0103036:	e8 5b f5 ff ff       	call   c0102596 <printk_color>
c010303b:	e8 fc fd ff ff       	call   c0102e3c <init_sched>
c0103040:	e8 ab fc ff ff       	call   c0102cf0 <print_cur_status>
c0103045:	a1 3c 68 10 c0       	mov    eax,ds:0xc010683c
c010304a:	8b 40 08             	mov    eax,DWORD PTR [eax+0x8]
c010304d:	05 00 20 00 00       	add    eax,0x2000
c0103052:	89 04 24             	mov    DWORD PTR [esp],eax
c0103055:	e8 7e 07 00 00       	call   c01037d8 <load_kern_esp>
c010305a:	e8 00 f3 ff ff       	call   c010235f <switch_to_user_mode>
c010305f:	f4                   	hlt    
c0103060:	eb fd                	jmp    c010305f <kern_init+0xf0>
c0103062:	66 90                	xchg   ax,ax

c0103064 <timer_callback>:
c0103064:	55                   	push   ebp
c0103065:	89 e5                	mov    ebp,esp
c0103067:	83 ec 08             	sub    esp,0x8
c010306a:	e8 34 fe ff ff       	call   c0102ea3 <schedule>
c010306f:	c9                   	leave  
c0103070:	c3                   	ret    

c0103071 <init_timer>:
c0103071:	55                   	push   ebp
c0103072:	89 e5                	mov    ebp,esp
c0103074:	83 ec 28             	sub    esp,0x28
c0103077:	c7 44 24 04 64 30 10 	mov    DWORD PTR [esp+0x4],0xc0103064
c010307e:	c0 
c010307f:	c7 04 24 20 00 00 00 	mov    DWORD PTR [esp],0x20
c0103086:	e8 47 10 00 00       	call   c01040d2 <register_interrupt_handler>
c010308b:	b8 dc 34 12 00       	mov    eax,0x1234dc
c0103090:	ba 00 00 00 00       	mov    edx,0x0
c0103095:	f7 75 08             	div    DWORD PTR [ebp+0x8]
c0103098:	89 45 f4             	mov    DWORD PTR [ebp-0xc],eax
c010309b:	c7 44 24 04 36 00 00 	mov    DWORD PTR [esp+0x4],0x36
c01030a2:	00 
c01030a3:	c7 04 24 43 00 00 00 	mov    DWORD PTR [esp],0x43
c01030aa:	e8 75 1c 00 00       	call   c0104d24 <outb>
c01030af:	8b 45 f4             	mov    eax,DWORD PTR [ebp-0xc]
c01030b2:	88 45 f3             	mov    BYTE PTR [ebp-0xd],al
c01030b5:	8b 45 f4             	mov    eax,DWORD PTR [ebp-0xc]
c01030b8:	c1 e8 08             	shr    eax,0x8
c01030bb:	88 45 f2             	mov    BYTE PTR [ebp-0xe],al
c01030be:	0f b6 45 f3          	movzx  eax,BYTE PTR [ebp-0xd]
c01030c2:	89 44 24 04          	mov    DWORD PTR [esp+0x4],eax
c01030c6:	c7 04 24 40 00 00 00 	mov    DWORD PTR [esp],0x40
c01030cd:	e8 52 1c 00 00       	call   c0104d24 <outb>
c01030d2:	0f b6 45 f2          	movzx  eax,BYTE PTR [ebp-0xe]
c01030d6:	89 44 24 04          	mov    DWORD PTR [esp+0x4],eax
c01030da:	c7 04 24 40 00 00 00 	mov    DWORD PTR [esp],0x40
c01030e1:	e8 3e 1c 00 00       	call   c0104d24 <outb>
c01030e6:	c9                   	leave  
c01030e7:	c3                   	ret    

c01030e8 <move_cursor>:
c01030e8:	55                   	push   ebp
c01030e9:	89 e5                	mov    ebp,esp
c01030eb:	83 ec 28             	sub    esp,0x28
c01030ee:	0f b6 05 45 68 10 c0 	movzx  eax,BYTE PTR ds:0xc0106845
c01030f5:	0f b6 d0             	movzx  edx,al
c01030f8:	89 d0                	mov    eax,edx
c01030fa:	c1 e0 02             	shl    eax,0x2
c01030fd:	01 d0                	add    eax,edx
c01030ff:	c1 e0 04             	shl    eax,0x4
c0103102:	89 c2                	mov    edx,eax
c0103104:	0f b6 05 44 68 10 c0 	movzx  eax,BYTE PTR ds:0xc0106844
c010310b:	0f b6 c0             	movzx  eax,al
c010310e:	01 d0                	add    eax,edx
c0103110:	66 89 45 f6          	mov    WORD PTR [ebp-0xa],ax
c0103114:	c7 44 24 04 0e 00 00 	mov    DWORD PTR [esp+0x4],0xe
c010311b:	00 
c010311c:	c7 04 24 d4 03 00 00 	mov    DWORD PTR [esp],0x3d4
c0103123:	e8 fc 1b 00 00       	call   c0104d24 <outb>
c0103128:	0f b7 45 f6          	movzx  eax,WORD PTR [ebp-0xa]
c010312c:	66 c1 e8 08          	shr    ax,0x8
c0103130:	0f b6 c0             	movzx  eax,al
c0103133:	89 44 24 04          	mov    DWORD PTR [esp+0x4],eax
c0103137:	c7 04 24 d5 03 00 00 	mov    DWORD PTR [esp],0x3d5
c010313e:	e8 e1 1b 00 00       	call   c0104d24 <outb>
c0103143:	c7 44 24 04 0f 00 00 	mov    DWORD PTR [esp+0x4],0xf
c010314a:	00 
c010314b:	c7 04 24 d4 03 00 00 	mov    DWORD PTR [esp],0x3d4
c0103152:	e8 cd 1b 00 00       	call   c0104d24 <outb>
c0103157:	0f b7 45 f6          	movzx  eax,WORD PTR [ebp-0xa]
c010315b:	0f b6 c0             	movzx  eax,al
c010315e:	89 44 24 04          	mov    DWORD PTR [esp+0x4],eax
c0103162:	c7 04 24 d5 03 00 00 	mov    DWORD PTR [esp],0x3d5
c0103169:	e8 b6 1b 00 00       	call   c0104d24 <outb>
c010316e:	c9                   	leave  
c010316f:	c3                   	ret    

c0103170 <scroll>:
c0103170:	55                   	push   ebp
c0103171:	89 e5                	mov    ebp,esp
c0103173:	83 ec 10             	sub    esp,0x10
c0103176:	c6 45 fb 0f          	mov    BYTE PTR [ebp-0x5],0xf
c010317a:	0f b6 45 fb          	movzx  eax,BYTE PTR [ebp-0x5]
c010317e:	c1 e0 08             	shl    eax,0x8
c0103181:	83 c8 20             	or     eax,0x20
c0103184:	66 89 45 f8          	mov    WORD PTR [ebp-0x8],ax
c0103188:	0f b6 05 45 68 10 c0 	movzx  eax,BYTE PTR ds:0xc0106845
c010318f:	3c 18                	cmp    al,0x18
c0103191:	76 67                	jbe    c01031fa <scroll+0x8a>
c0103193:	c7 45 fc 00 00 00 00 	mov    DWORD PTR [ebp-0x4],0x0
c010319a:	eb 25                	jmp    c01031c1 <scroll+0x51>
c010319c:	a1 0c 50 10 c0       	mov    eax,ds:0xc010500c
c01031a1:	8b 55 fc             	mov    edx,DWORD PTR [ebp-0x4]
c01031a4:	01 d2                	add    edx,edx
c01031a6:	01 c2                	add    edx,eax
c01031a8:	a1 0c 50 10 c0       	mov    eax,ds:0xc010500c
c01031ad:	8b 4d fc             	mov    ecx,DWORD PTR [ebp-0x4]
c01031b0:	83 c1 50             	add    ecx,0x50
c01031b3:	01 c9                	add    ecx,ecx
c01031b5:	01 c8                	add    eax,ecx
c01031b7:	0f b7 00             	movzx  eax,WORD PTR [eax]
c01031ba:	66 89 02             	mov    WORD PTR [edx],ax
c01031bd:	83 45 fc 01          	add    DWORD PTR [ebp-0x4],0x1
c01031c1:	81 7d fc 7f 07 00 00 	cmp    DWORD PTR [ebp-0x4],0x77f
c01031c8:	7e d2                	jle    c010319c <scroll+0x2c>
c01031ca:	c7 45 fc 80 07 00 00 	mov    DWORD PTR [ebp-0x4],0x780
c01031d1:	eb 17                	jmp    c01031ea <scroll+0x7a>
c01031d3:	a1 0c 50 10 c0       	mov    eax,ds:0xc010500c
c01031d8:	8b 55 fc             	mov    edx,DWORD PTR [ebp-0x4]
c01031db:	01 d2                	add    edx,edx
c01031dd:	01 c2                	add    edx,eax
c01031df:	0f b7 45 f8          	movzx  eax,WORD PTR [ebp-0x8]
c01031e3:	66 89 02             	mov    WORD PTR [edx],ax
c01031e6:	83 45 fc 01          	add    DWORD PTR [ebp-0x4],0x1
c01031ea:	81 7d fc cf 07 00 00 	cmp    DWORD PTR [ebp-0x4],0x7cf
c01031f1:	7e e0                	jle    c01031d3 <scroll+0x63>
c01031f3:	c6 05 45 68 10 c0 18 	mov    BYTE PTR ds:0xc0106845,0x18
c01031fa:	c9                   	leave  
c01031fb:	c3                   	ret    

c01031fc <console_clear>:
c01031fc:	55                   	push   ebp
c01031fd:	89 e5                	mov    ebp,esp
c01031ff:	83 ec 18             	sub    esp,0x18
c0103202:	c6 45 f3 0f          	mov    BYTE PTR [ebp-0xd],0xf
c0103206:	0f b6 45 f3          	movzx  eax,BYTE PTR [ebp-0xd]
c010320a:	c1 e0 08             	shl    eax,0x8
c010320d:	83 c8 20             	or     eax,0x20
c0103210:	66 89 45 f0          	mov    WORD PTR [ebp-0x10],ax
c0103214:	c7 45 f4 00 00 00 00 	mov    DWORD PTR [ebp-0xc],0x0
c010321b:	eb 17                	jmp    c0103234 <console_clear+0x38>
c010321d:	a1 0c 50 10 c0       	mov    eax,ds:0xc010500c
c0103222:	8b 55 f4             	mov    edx,DWORD PTR [ebp-0xc]
c0103225:	01 d2                	add    edx,edx
c0103227:	01 c2                	add    edx,eax
c0103229:	0f b7 45 f0          	movzx  eax,WORD PTR [ebp-0x10]
c010322d:	66 89 02             	mov    WORD PTR [edx],ax
c0103230:	83 45 f4 01          	add    DWORD PTR [ebp-0xc],0x1
c0103234:	81 7d f4 cf 07 00 00 	cmp    DWORD PTR [ebp-0xc],0x7cf
c010323b:	7e e0                	jle    c010321d <console_clear+0x21>
c010323d:	c6 05 44 68 10 c0 00 	mov    BYTE PTR ds:0xc0106844,0x0
c0103244:	c6 05 45 68 10 c0 00 	mov    BYTE PTR ds:0xc0106845,0x0
c010324b:	e8 98 fe ff ff       	call   c01030e8 <move_cursor>
c0103250:	c9                   	leave  
c0103251:	c3                   	ret    

c0103252 <console_putc_color>:
c0103252:	55                   	push   ebp
c0103253:	89 e5                	mov    ebp,esp
c0103255:	83 ec 28             	sub    esp,0x28
c0103258:	8b 45 08             	mov    eax,DWORD PTR [ebp+0x8]
c010325b:	88 45 e4             	mov    BYTE PTR [ebp-0x1c],al
c010325e:	8b 45 0c             	mov    eax,DWORD PTR [ebp+0xc]
c0103261:	88 45 f7             	mov    BYTE PTR [ebp-0x9],al
c0103264:	8b 45 10             	mov    eax,DWORD PTR [ebp+0x10]
c0103267:	88 45 f6             	mov    BYTE PTR [ebp-0xa],al
c010326a:	0f b6 45 f7          	movzx  eax,BYTE PTR [ebp-0x9]
c010326e:	c1 e0 04             	shl    eax,0x4
c0103271:	0f b6 55 f6          	movzx  edx,BYTE PTR [ebp-0xa]
c0103275:	83 e2 0f             	and    edx,0xf
c0103278:	09 d0                	or     eax,edx
c010327a:	88 45 f5             	mov    BYTE PTR [ebp-0xb],al
c010327d:	0f b6 45 f5          	movzx  eax,BYTE PTR [ebp-0xb]
c0103281:	c1 e0 08             	shl    eax,0x8
c0103284:	66 89 45 f2          	mov    WORD PTR [ebp-0xe],ax
c0103288:	80 7d e4 08          	cmp    BYTE PTR [ebp-0x1c],0x8
c010328c:	75 1f                	jne    c01032ad <console_putc_color+0x5b>
c010328e:	0f b6 05 44 68 10 c0 	movzx  eax,BYTE PTR ds:0xc0106844
c0103295:	84 c0                	test   al,al
c0103297:	74 14                	je     c01032ad <console_putc_color+0x5b>
c0103299:	0f b6 05 44 68 10 c0 	movzx  eax,BYTE PTR ds:0xc0106844
c01032a0:	83 e8 01             	sub    eax,0x1
c01032a3:	a2 44 68 10 c0       	mov    ds:0xc0106844,al
c01032a8:	e9 97 00 00 00       	jmp    c0103344 <console_putc_color+0xf2>
c01032ad:	80 7d e4 09          	cmp    BYTE PTR [ebp-0x1c],0x9
c01032b1:	75 14                	jne    c01032c7 <console_putc_color+0x75>
c01032b3:	0f b6 05 44 68 10 c0 	movzx  eax,BYTE PTR ds:0xc0106844
c01032ba:	83 c0 08             	add    eax,0x8
c01032bd:	83 e0 f8             	and    eax,0xfffffff8
c01032c0:	a2 44 68 10 c0       	mov    ds:0xc0106844,al
c01032c5:	eb 7d                	jmp    c0103344 <console_putc_color+0xf2>
c01032c7:	80 7d e4 0d          	cmp    BYTE PTR [ebp-0x1c],0xd
c01032cb:	75 09                	jne    c01032d6 <console_putc_color+0x84>
c01032cd:	c6 05 44 68 10 c0 00 	mov    BYTE PTR ds:0xc0106844,0x0
c01032d4:	eb 6e                	jmp    c0103344 <console_putc_color+0xf2>
c01032d6:	80 7d e4 0a          	cmp    BYTE PTR [ebp-0x1c],0xa
c01032da:	75 18                	jne    c01032f4 <console_putc_color+0xa2>
c01032dc:	c6 05 44 68 10 c0 00 	mov    BYTE PTR ds:0xc0106844,0x0
c01032e3:	0f b6 05 45 68 10 c0 	movzx  eax,BYTE PTR ds:0xc0106845
c01032ea:	83 c0 01             	add    eax,0x1
c01032ed:	a2 45 68 10 c0       	mov    ds:0xc0106845,al
c01032f2:	eb 50                	jmp    c0103344 <console_putc_color+0xf2>
c01032f4:	80 7d e4 1f          	cmp    BYTE PTR [ebp-0x1c],0x1f
c01032f8:	7e 4a                	jle    c0103344 <console_putc_color+0xf2>
c01032fa:	8b 0d 0c 50 10 c0    	mov    ecx,DWORD PTR ds:0xc010500c
c0103300:	0f b6 05 45 68 10 c0 	movzx  eax,BYTE PTR ds:0xc0106845
c0103307:	0f b6 d0             	movzx  edx,al
c010330a:	89 d0                	mov    eax,edx
c010330c:	c1 e0 02             	shl    eax,0x2
c010330f:	01 d0                	add    eax,edx
c0103311:	c1 e0 04             	shl    eax,0x4
c0103314:	89 c2                	mov    edx,eax
c0103316:	0f b6 05 44 68 10 c0 	movzx  eax,BYTE PTR ds:0xc0106844
c010331d:	0f b6 c0             	movzx  eax,al
c0103320:	01 d0                	add    eax,edx
c0103322:	01 c0                	add    eax,eax
c0103324:	8d 14 01             	lea    edx,[ecx+eax*1]
c0103327:	66 0f be 4d e4       	movsx  cx,BYTE PTR [ebp-0x1c]
c010332c:	0f b7 45 f2          	movzx  eax,WORD PTR [ebp-0xe]
c0103330:	09 c8                	or     eax,ecx
c0103332:	66 89 02             	mov    WORD PTR [edx],ax
c0103335:	0f b6 05 44 68 10 c0 	movzx  eax,BYTE PTR ds:0xc0106844
c010333c:	83 c0 01             	add    eax,0x1
c010333f:	a2 44 68 10 c0       	mov    ds:0xc0106844,al
c0103344:	0f b6 05 44 68 10 c0 	movzx  eax,BYTE PTR ds:0xc0106844
c010334b:	3c 4f                	cmp    al,0x4f
c010334d:	76 16                	jbe    c0103365 <console_putc_color+0x113>
c010334f:	c6 05 44 68 10 c0 00 	mov    BYTE PTR ds:0xc0106844,0x0
c0103356:	0f b6 05 45 68 10 c0 	movzx  eax,BYTE PTR ds:0xc0106845
c010335d:	83 c0 01             	add    eax,0x1
c0103360:	a2 45 68 10 c0       	mov    ds:0xc0106845,al
c0103365:	e8 06 fe ff ff       	call   c0103170 <scroll>
c010336a:	e8 79 fd ff ff       	call   c01030e8 <move_cursor>
c010336f:	c9                   	leave  
c0103370:	c3                   	ret    

c0103371 <console_write>:
c0103371:	55                   	push   ebp
c0103372:	89 e5                	mov    ebp,esp
c0103374:	83 ec 18             	sub    esp,0x18
c0103377:	eb 25                	jmp    c010339e <console_write+0x2d>
c0103379:	8b 45 08             	mov    eax,DWORD PTR [ebp+0x8]
c010337c:	0f b6 00             	movzx  eax,BYTE PTR [eax]
c010337f:	0f be c0             	movsx  eax,al
c0103382:	83 45 08 01          	add    DWORD PTR [ebp+0x8],0x1
c0103386:	c7 44 24 08 0f 00 00 	mov    DWORD PTR [esp+0x8],0xf
c010338d:	00 
c010338e:	c7 44 24 04 00 00 00 	mov    DWORD PTR [esp+0x4],0x0
c0103395:	00 
c0103396:	89 04 24             	mov    DWORD PTR [esp],eax
c0103399:	e8 b4 fe ff ff       	call   c0103252 <console_putc_color>
c010339e:	8b 45 08             	mov    eax,DWORD PTR [ebp+0x8]
c01033a1:	0f b6 00             	movzx  eax,BYTE PTR [eax]
c01033a4:	84 c0                	test   al,al
c01033a6:	75 d1                	jne    c0103379 <console_write+0x8>
c01033a8:	c9                   	leave  
c01033a9:	c3                   	ret    

c01033aa <console_write_color>:
c01033aa:	55                   	push   ebp
c01033ab:	89 e5                	mov    ebp,esp
c01033ad:	83 ec 18             	sub    esp,0x18
c01033b0:	eb 23                	jmp    c01033d5 <console_write_color+0x2b>
c01033b2:	8b 45 08             	mov    eax,DWORD PTR [ebp+0x8]
c01033b5:	0f b6 00             	movzx  eax,BYTE PTR [eax]
c01033b8:	0f be c0             	movsx  eax,al
c01033bb:	83 45 08 01          	add    DWORD PTR [ebp+0x8],0x1
c01033bf:	8b 55 10             	mov    edx,DWORD PTR [ebp+0x10]
c01033c2:	89 54 24 08          	mov    DWORD PTR [esp+0x8],edx
c01033c6:	8b 55 0c             	mov    edx,DWORD PTR [ebp+0xc]
c01033c9:	89 54 24 04          	mov    DWORD PTR [esp+0x4],edx
c01033cd:	89 04 24             	mov    DWORD PTR [esp],eax
c01033d0:	e8 7d fe ff ff       	call   c0103252 <console_putc_color>
c01033d5:	8b 45 08             	mov    eax,DWORD PTR [ebp+0x8]
c01033d8:	0f b6 00             	movzx  eax,BYTE PTR [eax]
c01033db:	84 c0                	test   al,al
c01033dd:	75 d3                	jne    c01033b2 <console_write_color+0x8>
c01033df:	c9                   	leave  
c01033e0:	c3                   	ret    

c01033e1 <console_write_hex>:
c01033e1:	55                   	push   ebp
c01033e2:	89 e5                	mov    ebp,esp
c01033e4:	53                   	push   ebx
c01033e5:	83 ec 24             	sub    esp,0x24
c01033e8:	c6 45 f7 01          	mov    BYTE PTR [ebp-0x9],0x1
c01033ec:	8b 45 10             	mov    eax,DWORD PTR [ebp+0x10]
c01033ef:	89 44 24 08          	mov    DWORD PTR [esp+0x8],eax
c01033f3:	8b 45 0c             	mov    eax,DWORD PTR [ebp+0xc]
c01033f6:	89 44 24 04          	mov    DWORD PTR [esp+0x4],eax
c01033fa:	c7 04 24 a0 52 10 c0 	mov    DWORD PTR [esp],0xc01052a0
c0103401:	e8 a4 ff ff ff       	call   c01033aa <console_write_color>
c0103406:	c7 45 f0 1c 00 00 00 	mov    DWORD PTR [ebp-0x10],0x1c
c010340d:	eb 71                	jmp    c0103480 <console_write_hex+0x9f>
c010340f:	8b 45 f0             	mov    eax,DWORD PTR [ebp-0x10]
c0103412:	8b 55 08             	mov    edx,DWORD PTR [ebp+0x8]
c0103415:	89 d3                	mov    ebx,edx
c0103417:	89 c1                	mov    ecx,eax
c0103419:	d3 eb                	shr    ebx,cl
c010341b:	89 d8                	mov    eax,ebx
c010341d:	83 e0 0f             	and    eax,0xf
c0103420:	89 45 ec             	mov    DWORD PTR [ebp-0x14],eax
c0103423:	83 7d ec 00          	cmp    DWORD PTR [ebp-0x14],0x0
c0103427:	75 06                	jne    c010342f <console_write_hex+0x4e>
c0103429:	80 7d f7 00          	cmp    BYTE PTR [ebp-0x9],0x0
c010342d:	75 4c                	jne    c010347b <console_write_hex+0x9a>
c010342f:	c6 45 f7 00          	mov    BYTE PTR [ebp-0x9],0x0
c0103433:	83 7d ec 09          	cmp    DWORD PTR [ebp-0x14],0x9
c0103437:	7e 21                	jle    c010345a <console_write_hex+0x79>
c0103439:	8b 45 ec             	mov    eax,DWORD PTR [ebp-0x14]
c010343c:	83 c0 57             	add    eax,0x57
c010343f:	0f be c0             	movsx  eax,al
c0103442:	8b 55 10             	mov    edx,DWORD PTR [ebp+0x10]
c0103445:	89 54 24 08          	mov    DWORD PTR [esp+0x8],edx
c0103449:	8b 55 0c             	mov    edx,DWORD PTR [ebp+0xc]
c010344c:	89 54 24 04          	mov    DWORD PTR [esp+0x4],edx
c0103450:	89 04 24             	mov    DWORD PTR [esp],eax
c0103453:	e8 fa fd ff ff       	call   c0103252 <console_putc_color>
c0103458:	eb 22                	jmp    c010347c <console_write_hex+0x9b>
c010345a:	8b 45 ec             	mov    eax,DWORD PTR [ebp-0x14]
c010345d:	83 c0 30             	add    eax,0x30
c0103460:	0f be c0             	movsx  eax,al
c0103463:	8b 55 10             	mov    edx,DWORD PTR [ebp+0x10]
c0103466:	89 54 24 08          	mov    DWORD PTR [esp+0x8],edx
c010346a:	8b 55 0c             	mov    edx,DWORD PTR [ebp+0xc]
c010346d:	89 54 24 04          	mov    DWORD PTR [esp+0x4],edx
c0103471:	89 04 24             	mov    DWORD PTR [esp],eax
c0103474:	e8 d9 fd ff ff       	call   c0103252 <console_putc_color>
c0103479:	eb 01                	jmp    c010347c <console_write_hex+0x9b>
c010347b:	90                   	nop
c010347c:	83 6d f0 04          	sub    DWORD PTR [ebp-0x10],0x4
c0103480:	83 7d f0 00          	cmp    DWORD PTR [ebp-0x10],0x0
c0103484:	79 89                	jns    c010340f <console_write_hex+0x2e>
c0103486:	83 c4 24             	add    esp,0x24
c0103489:	5b                   	pop    ebx
c010348a:	5d                   	pop    ebp
c010348b:	c3                   	ret    

c010348c <console_write_dec>:
c010348c:	55                   	push   ebp
c010348d:	89 e5                	mov    ebp,esp
c010348f:	83 ec 78             	sub    esp,0x78
c0103492:	83 7d 08 00          	cmp    DWORD PTR [ebp+0x8],0x0
c0103496:	75 1f                	jne    c01034b7 <console_write_dec+0x2b>
c0103498:	8b 45 10             	mov    eax,DWORD PTR [ebp+0x10]
c010349b:	89 44 24 08          	mov    DWORD PTR [esp+0x8],eax
c010349f:	8b 45 0c             	mov    eax,DWORD PTR [ebp+0xc]
c01034a2:	89 44 24 04          	mov    DWORD PTR [esp+0x4],eax
c01034a6:	c7 04 24 30 00 00 00 	mov    DWORD PTR [esp],0x30
c01034ad:	e8 a0 fd ff ff       	call   c0103252 <console_putc_color>
c01034b2:	e9 bb 00 00 00       	jmp    c0103572 <console_write_dec+0xe6>
c01034b7:	8b 45 08             	mov    eax,DWORD PTR [ebp+0x8]
c01034ba:	89 45 f4             	mov    DWORD PTR [ebp-0xc],eax
c01034bd:	c7 45 f0 00 00 00 00 	mov    DWORD PTR [ebp-0x10],0x0
c01034c4:	eb 47                	jmp    c010350d <console_write_dec+0x81>
c01034c6:	8b 4d f4             	mov    ecx,DWORD PTR [ebp-0xc]
c01034c9:	ba cd cc cc cc       	mov    edx,0xcccccccd
c01034ce:	89 c8                	mov    eax,ecx
c01034d0:	f7 e2                	mul    edx
c01034d2:	c1 ea 03             	shr    edx,0x3
c01034d5:	89 d0                	mov    eax,edx
c01034d7:	c1 e0 02             	shl    eax,0x2
c01034da:	01 d0                	add    eax,edx
c01034dc:	01 c0                	add    eax,eax
c01034de:	89 ca                	mov    edx,ecx
c01034e0:	29 c2                	sub    edx,eax
c01034e2:	89 d0                	mov    eax,edx
c01034e4:	83 c0 30             	add    eax,0x30
c01034e7:	8d 4d cc             	lea    ecx,[ebp-0x34]
c01034ea:	8b 55 f0             	mov    edx,DWORD PTR [ebp-0x10]
c01034ed:	01 ca                	add    edx,ecx
c01034ef:	88 02                	mov    BYTE PTR [edx],al
c01034f1:	8b 45 f4             	mov    eax,DWORD PTR [ebp-0xc]
c01034f4:	89 45 a4             	mov    DWORD PTR [ebp-0x5c],eax
c01034f7:	ba cd cc cc cc       	mov    edx,0xcccccccd
c01034fc:	8b 45 a4             	mov    eax,DWORD PTR [ebp-0x5c]
c01034ff:	f7 e2                	mul    edx
c0103501:	89 d0                	mov    eax,edx
c0103503:	c1 e8 03             	shr    eax,0x3
c0103506:	89 45 f4             	mov    DWORD PTR [ebp-0xc],eax
c0103509:	83 45 f0 01          	add    DWORD PTR [ebp-0x10],0x1
c010350d:	83 7d f4 00          	cmp    DWORD PTR [ebp-0xc],0x0
c0103511:	75 b3                	jne    c01034c6 <console_write_dec+0x3a>
c0103513:	8d 55 cc             	lea    edx,[ebp-0x34]
c0103516:	8b 45 f0             	mov    eax,DWORD PTR [ebp-0x10]
c0103519:	01 d0                	add    eax,edx
c010351b:	c6 00 00             	mov    BYTE PTR [eax],0x0
c010351e:	8d 55 ac             	lea    edx,[ebp-0x54]
c0103521:	8b 45 f0             	mov    eax,DWORD PTR [ebp-0x10]
c0103524:	01 d0                	add    eax,edx
c0103526:	c6 00 00             	mov    BYTE PTR [eax],0x0
c0103529:	83 6d f0 01          	sub    DWORD PTR [ebp-0x10],0x1
c010352d:	c7 45 ec 00 00 00 00 	mov    DWORD PTR [ebp-0x14],0x0
c0103534:	eb 1d                	jmp    c0103553 <console_write_dec+0xc7>
c0103536:	8d 55 cc             	lea    edx,[ebp-0x34]
c0103539:	8b 45 ec             	mov    eax,DWORD PTR [ebp-0x14]
c010353c:	01 d0                	add    eax,edx
c010353e:	0f b6 00             	movzx  eax,BYTE PTR [eax]
c0103541:	8d 4d ac             	lea    ecx,[ebp-0x54]
c0103544:	8b 55 f0             	mov    edx,DWORD PTR [ebp-0x10]
c0103547:	01 ca                	add    edx,ecx
c0103549:	88 02                	mov    BYTE PTR [edx],al
c010354b:	83 6d f0 01          	sub    DWORD PTR [ebp-0x10],0x1
c010354f:	83 45 ec 01          	add    DWORD PTR [ebp-0x14],0x1
c0103553:	83 7d f0 00          	cmp    DWORD PTR [ebp-0x10],0x0
c0103557:	79 dd                	jns    c0103536 <console_write_dec+0xaa>
c0103559:	8b 45 10             	mov    eax,DWORD PTR [ebp+0x10]
c010355c:	89 44 24 08          	mov    DWORD PTR [esp+0x8],eax
c0103560:	8b 45 0c             	mov    eax,DWORD PTR [ebp+0xc]
c0103563:	89 44 24 04          	mov    DWORD PTR [esp+0x4],eax
c0103567:	8d 45 ac             	lea    eax,[ebp-0x54]
c010356a:	89 04 24             	mov    DWORD PTR [esp],eax
c010356d:	e8 38 fe ff ff       	call   c01033aa <console_write_color>
c0103572:	c9                   	leave  
c0103573:	c3                   	ret    

c0103574 <init_gdt>:
c0103574:	55                   	push   ebp
c0103575:	89 e5                	mov    ebp,esp
c0103577:	83 ec 28             	sub    esp,0x28
c010357a:	66 c7 05 c8 a0 20 c0 	mov    WORD PTR ds:0xc020a0c8,0x2f
c0103581:	2f 00 
c0103583:	b8 20 a0 20 c0       	mov    eax,0xc020a020
c0103588:	a3 ca a0 20 c0       	mov    ds:0xc020a0ca,eax
c010358d:	c7 44 24 10 00 00 00 	mov    DWORD PTR [esp+0x10],0x0
c0103594:	00 
c0103595:	c7 44 24 0c 00 00 00 	mov    DWORD PTR [esp+0xc],0x0
c010359c:	00 
c010359d:	c7 44 24 08 00 00 00 	mov    DWORD PTR [esp+0x8],0x0
c01035a4:	00 
c01035a5:	c7 44 24 04 00 00 00 	mov    DWORD PTR [esp+0x4],0x0
c01035ac:	00 
c01035ad:	c7 04 24 00 00 00 00 	mov    DWORD PTR [esp],0x0
c01035b4:	e8 e0 00 00 00       	call   c0103699 <gdt_set_gate>
c01035b9:	c7 44 24 10 cf 00 00 	mov    DWORD PTR [esp+0x10],0xcf
c01035c0:	00 
c01035c1:	c7 44 24 0c 9a 00 00 	mov    DWORD PTR [esp+0xc],0x9a
c01035c8:	00 
c01035c9:	c7 44 24 08 ff ff ff 	mov    DWORD PTR [esp+0x8],0xffffffff
c01035d0:	ff 
c01035d1:	c7 44 24 04 00 00 00 	mov    DWORD PTR [esp+0x4],0x0
c01035d8:	00 
c01035d9:	c7 04 24 01 00 00 00 	mov    DWORD PTR [esp],0x1
c01035e0:	e8 b4 00 00 00       	call   c0103699 <gdt_set_gate>
c01035e5:	c7 44 24 10 cf 00 00 	mov    DWORD PTR [esp+0x10],0xcf
c01035ec:	00 
c01035ed:	c7 44 24 0c 92 00 00 	mov    DWORD PTR [esp+0xc],0x92
c01035f4:	00 
c01035f5:	c7 44 24 08 ff ff ff 	mov    DWORD PTR [esp+0x8],0xffffffff
c01035fc:	ff 
c01035fd:	c7 44 24 04 00 00 00 	mov    DWORD PTR [esp+0x4],0x0
c0103604:	00 
c0103605:	c7 04 24 02 00 00 00 	mov    DWORD PTR [esp],0x2
c010360c:	e8 88 00 00 00       	call   c0103699 <gdt_set_gate>
c0103611:	c7 44 24 10 cf 00 00 	mov    DWORD PTR [esp+0x10],0xcf
c0103618:	00 
c0103619:	c7 44 24 0c fa 00 00 	mov    DWORD PTR [esp+0xc],0xfa
c0103620:	00 
c0103621:	c7 44 24 08 ff ff ff 	mov    DWORD PTR [esp+0x8],0xffffffff
c0103628:	ff 
c0103629:	c7 44 24 04 00 00 00 	mov    DWORD PTR [esp+0x4],0x0
c0103630:	00 
c0103631:	c7 04 24 03 00 00 00 	mov    DWORD PTR [esp],0x3
c0103638:	e8 5c 00 00 00       	call   c0103699 <gdt_set_gate>
c010363d:	c7 44 24 10 cf 00 00 	mov    DWORD PTR [esp+0x10],0xcf
c0103644:	00 
c0103645:	c7 44 24 0c f2 00 00 	mov    DWORD PTR [esp+0xc],0xf2
c010364c:	00 
c010364d:	c7 44 24 08 ff ff ff 	mov    DWORD PTR [esp+0x8],0xffffffff
c0103654:	ff 
c0103655:	c7 44 24 04 00 00 00 	mov    DWORD PTR [esp+0x4],0x0
c010365c:	00 
c010365d:	c7 04 24 04 00 00 00 	mov    DWORD PTR [esp],0x4
c0103664:	e8 30 00 00 00       	call   c0103699 <gdt_set_gate>
c0103669:	c7 44 24 08 00 00 00 	mov    DWORD PTR [esp+0x8],0x0
c0103670:	00 
c0103671:	c7 44 24 04 10 00 00 	mov    DWORD PTR [esp+0x4],0x10
c0103678:	00 
c0103679:	c7 04 24 05 00 00 00 	mov    DWORD PTR [esp],0x5
c0103680:	e8 af 00 00 00       	call   c0103734 <tss_set_gate>
c0103685:	b8 c8 a0 20 c0       	mov    eax,0xc020a0c8
c010368a:	89 04 24             	mov    DWORD PTR [esp],eax
c010368d:	e8 ae e9 ff ff       	call   c0102040 <gdt_flush>
c0103692:	e8 99 e9 ff ff       	call   c0102030 <tss_flush>
c0103697:	c9                   	leave  
c0103698:	c3                   	ret    

c0103699 <gdt_set_gate>:
c0103699:	55                   	push   ebp
c010369a:	89 e5                	mov    ebp,esp
c010369c:	83 ec 08             	sub    esp,0x8
c010369f:	8b 55 14             	mov    edx,DWORD PTR [ebp+0x14]
c01036a2:	8b 45 18             	mov    eax,DWORD PTR [ebp+0x18]
c01036a5:	88 55 fc             	mov    BYTE PTR [ebp-0x4],dl
c01036a8:	88 45 f8             	mov    BYTE PTR [ebp-0x8],al
c01036ab:	8b 45 0c             	mov    eax,DWORD PTR [ebp+0xc]
c01036ae:	89 c2                	mov    edx,eax
c01036b0:	8b 45 08             	mov    eax,DWORD PTR [ebp+0x8]
c01036b3:	66 89 14 c5 22 a0 20 	mov    WORD PTR [eax*8-0x3fdf5fde],dx
c01036ba:	c0 
c01036bb:	8b 45 0c             	mov    eax,DWORD PTR [ebp+0xc]
c01036be:	c1 e8 10             	shr    eax,0x10
c01036c1:	89 c2                	mov    edx,eax
c01036c3:	8b 45 08             	mov    eax,DWORD PTR [ebp+0x8]
c01036c6:	88 14 c5 24 a0 20 c0 	mov    BYTE PTR [eax*8-0x3fdf5fdc],dl
c01036cd:	8b 45 0c             	mov    eax,DWORD PTR [ebp+0xc]
c01036d0:	c1 e8 18             	shr    eax,0x18
c01036d3:	89 c2                	mov    edx,eax
c01036d5:	8b 45 08             	mov    eax,DWORD PTR [ebp+0x8]
c01036d8:	88 14 c5 27 a0 20 c0 	mov    BYTE PTR [eax*8-0x3fdf5fd9],dl
c01036df:	8b 45 10             	mov    eax,DWORD PTR [ebp+0x10]
c01036e2:	89 c2                	mov    edx,eax
c01036e4:	8b 45 08             	mov    eax,DWORD PTR [ebp+0x8]
c01036e7:	66 89 14 c5 20 a0 20 	mov    WORD PTR [eax*8-0x3fdf5fe0],dx
c01036ee:	c0 
c01036ef:	8b 45 10             	mov    eax,DWORD PTR [ebp+0x10]
c01036f2:	c1 e8 10             	shr    eax,0x10
c01036f5:	89 c2                	mov    edx,eax
c01036f7:	83 e2 0f             	and    edx,0xf
c01036fa:	8b 45 08             	mov    eax,DWORD PTR [ebp+0x8]
c01036fd:	88 14 c5 26 a0 20 c0 	mov    BYTE PTR [eax*8-0x3fdf5fda],dl
c0103704:	8b 45 08             	mov    eax,DWORD PTR [ebp+0x8]
c0103707:	0f b6 04 c5 26 a0 20 	movzx  eax,BYTE PTR [eax*8-0x3fdf5fda]
c010370e:	c0 
c010370f:	0f b6 55 f8          	movzx  edx,BYTE PTR [ebp-0x8]
c0103713:	83 e2 f0             	and    edx,0xfffffff0
c0103716:	09 d0                	or     eax,edx
c0103718:	89 c2                	mov    edx,eax
c010371a:	8b 45 08             	mov    eax,DWORD PTR [ebp+0x8]
c010371d:	88 14 c5 26 a0 20 c0 	mov    BYTE PTR [eax*8-0x3fdf5fda],dl
c0103724:	8b 45 08             	mov    eax,DWORD PTR [ebp+0x8]
c0103727:	0f b6 55 fc          	movzx  edx,BYTE PTR [ebp-0x4]
c010372b:	88 14 c5 25 a0 20 c0 	mov    BYTE PTR [eax*8-0x3fdf5fdb],dl
c0103732:	c9                   	leave  
c0103733:	c3                   	ret    

c0103734 <tss_set_gate>:
c0103734:	55                   	push   ebp
c0103735:	89 e5                	mov    ebp,esp
c0103737:	83 ec 48             	sub    esp,0x48
c010373a:	8b 45 0c             	mov    eax,DWORD PTR [ebp+0xc]
c010373d:	66 89 45 e4          	mov    WORD PTR [ebp-0x1c],ax
c0103741:	c7 45 f4 60 a0 20 c0 	mov    DWORD PTR [ebp-0xc],0xc020a060
c0103748:	8b 45 f4             	mov    eax,DWORD PTR [ebp-0xc]
c010374b:	83 c0 68             	add    eax,0x68
c010374e:	89 45 f0             	mov    DWORD PTR [ebp-0x10],eax
c0103751:	c7 44 24 10 00 00 00 	mov    DWORD PTR [esp+0x10],0x0
c0103758:	00 
c0103759:	c7 44 24 0c e9 00 00 	mov    DWORD PTR [esp+0xc],0xe9
c0103760:	00 
c0103761:	8b 45 f0             	mov    eax,DWORD PTR [ebp-0x10]
c0103764:	89 44 24 08          	mov    DWORD PTR [esp+0x8],eax
c0103768:	8b 45 f4             	mov    eax,DWORD PTR [ebp-0xc]
c010376b:	89 44 24 04          	mov    DWORD PTR [esp+0x4],eax
c010376f:	8b 45 08             	mov    eax,DWORD PTR [ebp+0x8]
c0103772:	89 04 24             	mov    DWORD PTR [esp],eax
c0103775:	e8 1f ff ff ff       	call   c0103699 <gdt_set_gate>
c010377a:	c7 44 24 04 68 00 00 	mov    DWORD PTR [esp+0x4],0x68
c0103781:	00 
c0103782:	c7 04 24 60 a0 20 c0 	mov    DWORD PTR [esp],0xc020a060
c0103789:	e8 5f 14 00 00       	call   c0104bed <bzero>
c010378e:	0f b7 45 e4          	movzx  eax,WORD PTR [ebp-0x1c]
c0103792:	66 a3 68 a0 20 c0    	mov    ds:0xc020a068,ax
c0103798:	8b 45 10             	mov    eax,DWORD PTR [ebp+0x10]
c010379b:	a3 64 a0 20 c0       	mov    ds:0xc020a064,eax
c01037a0:	66 c7 05 ac a0 20 c0 	mov    WORD PTR ds:0xc020a0ac,0xb
c01037a7:	0b 00 
c01037a9:	66 c7 05 b0 a0 20 c0 	mov    WORD PTR ds:0xc020a0b0,0x13
c01037b0:	13 00 
c01037b2:	66 c7 05 b4 a0 20 c0 	mov    WORD PTR ds:0xc020a0b4,0x13
c01037b9:	13 00 
c01037bb:	66 c7 05 a8 a0 20 c0 	mov    WORD PTR ds:0xc020a0a8,0x13
c01037c2:	13 00 
c01037c4:	66 c7 05 b8 a0 20 c0 	mov    WORD PTR ds:0xc020a0b8,0x13
c01037cb:	13 00 
c01037cd:	66 c7 05 bc a0 20 c0 	mov    WORD PTR ds:0xc020a0bc,0x13
c01037d4:	13 00 
c01037d6:	c9                   	leave  
c01037d7:	c3                   	ret    

c01037d8 <load_kern_esp>:
c01037d8:	55                   	push   ebp
c01037d9:	89 e5                	mov    ebp,esp
c01037db:	8b 45 08             	mov    eax,DWORD PTR [ebp+0x8]
c01037de:	a3 64 a0 20 c0       	mov    ds:0xc020a064,eax
c01037e3:	5d                   	pop    ebp
c01037e4:	c3                   	ret    
c01037e5:	66 90                	xchg   ax,ax
c01037e7:	90                   	nop

c01037e8 <init_idt>:
c01037e8:	55                   	push   ebp
c01037e9:	89 e5                	mov    ebp,esp
c01037eb:	83 ec 18             	sub    esp,0x18
c01037ee:	c7 44 24 04 11 00 00 	mov    DWORD PTR [esp+0x4],0x11
c01037f5:	00 
c01037f6:	c7 04 24 20 00 00 00 	mov    DWORD PTR [esp],0x20
c01037fd:	e8 22 15 00 00       	call   c0104d24 <outb>
c0103802:	c7 44 24 04 11 00 00 	mov    DWORD PTR [esp+0x4],0x11
c0103809:	00 
c010380a:	c7 04 24 a0 00 00 00 	mov    DWORD PTR [esp],0xa0
c0103811:	e8 0e 15 00 00       	call   c0104d24 <outb>
c0103816:	c7 44 24 04 20 00 00 	mov    DWORD PTR [esp+0x4],0x20
c010381d:	00 
c010381e:	c7 04 24 21 00 00 00 	mov    DWORD PTR [esp],0x21
c0103825:	e8 fa 14 00 00       	call   c0104d24 <outb>
c010382a:	c7 44 24 04 28 00 00 	mov    DWORD PTR [esp+0x4],0x28
c0103831:	00 
c0103832:	c7 04 24 a1 00 00 00 	mov    DWORD PTR [esp],0xa1
c0103839:	e8 e6 14 00 00       	call   c0104d24 <outb>
c010383e:	c7 44 24 04 04 00 00 	mov    DWORD PTR [esp+0x4],0x4
c0103845:	00 
c0103846:	c7 04 24 21 00 00 00 	mov    DWORD PTR [esp],0x21
c010384d:	e8 d2 14 00 00       	call   c0104d24 <outb>
c0103852:	c7 44 24 04 02 00 00 	mov    DWORD PTR [esp+0x4],0x2
c0103859:	00 
c010385a:	c7 04 24 a1 00 00 00 	mov    DWORD PTR [esp],0xa1
c0103861:	e8 be 14 00 00       	call   c0104d24 <outb>
c0103866:	c7 44 24 04 01 00 00 	mov    DWORD PTR [esp+0x4],0x1
c010386d:	00 
c010386e:	c7 04 24 21 00 00 00 	mov    DWORD PTR [esp],0x21
c0103875:	e8 aa 14 00 00       	call   c0104d24 <outb>
c010387a:	c7 44 24 04 01 00 00 	mov    DWORD PTR [esp+0x4],0x1
c0103881:	00 
c0103882:	c7 04 24 a1 00 00 00 	mov    DWORD PTR [esp],0xa1
c0103889:	e8 96 14 00 00       	call   c0104d24 <outb>
c010388e:	c7 44 24 04 00 00 00 	mov    DWORD PTR [esp+0x4],0x0
c0103895:	00 
c0103896:	c7 04 24 21 00 00 00 	mov    DWORD PTR [esp],0x21
c010389d:	e8 82 14 00 00       	call   c0104d24 <outb>
c01038a2:	c7 44 24 04 00 00 00 	mov    DWORD PTR [esp+0x4],0x0
c01038a9:	00 
c01038aa:	c7 04 24 a1 00 00 00 	mov    DWORD PTR [esp],0xa1
c01038b1:	e8 6e 14 00 00       	call   c0104d24 <outb>
c01038b6:	c7 44 24 04 00 04 00 	mov    DWORD PTR [esp+0x4],0x400
c01038bd:	00 
c01038be:	c7 04 24 00 a9 20 c0 	mov    DWORD PTR [esp],0xc020a900
c01038c5:	e8 23 13 00 00       	call   c0104bed <bzero>
c01038ca:	66 c7 05 e0 a0 20 c0 	mov    WORD PTR ds:0xc020a0e0,0x7ff
c01038d1:	ff 07 
c01038d3:	b8 00 a1 20 c0       	mov    eax,0xc020a100
c01038d8:	a3 e2 a0 20 c0       	mov    ds:0xc020a0e2,eax
c01038dd:	c7 44 24 04 00 08 00 	mov    DWORD PTR [esp+0x4],0x800
c01038e4:	00 
c01038e5:	c7 04 24 00 a1 20 c0 	mov    DWORD PTR [esp],0xc020a100
c01038ec:	e8 fc 12 00 00       	call   c0104bed <bzero>
c01038f1:	b8 68 20 10 c0       	mov    eax,0xc0102068
c01038f6:	c7 44 24 0c 8e 00 00 	mov    DWORD PTR [esp+0xc],0x8e
c01038fd:	00 
c01038fe:	c7 44 24 08 08 00 00 	mov    DWORD PTR [esp+0x8],0x8
c0103905:	00 
c0103906:	89 44 24 04          	mov    DWORD PTR [esp+0x4],eax
c010390a:	c7 04 24 00 00 00 00 	mov    DWORD PTR [esp],0x0
c0103911:	e8 ff 06 00 00       	call   c0104015 <idt_set_gate>
c0103916:	b8 72 20 10 c0       	mov    eax,0xc0102072
c010391b:	c7 44 24 0c 8e 00 00 	mov    DWORD PTR [esp+0xc],0x8e
c0103922:	00 
c0103923:	c7 44 24 08 08 00 00 	mov    DWORD PTR [esp+0x8],0x8
c010392a:	00 
c010392b:	89 44 24 04          	mov    DWORD PTR [esp+0x4],eax
c010392f:	c7 04 24 01 00 00 00 	mov    DWORD PTR [esp],0x1
c0103936:	e8 da 06 00 00       	call   c0104015 <idt_set_gate>
c010393b:	b8 7c 20 10 c0       	mov    eax,0xc010207c
c0103940:	c7 44 24 0c 8e 00 00 	mov    DWORD PTR [esp+0xc],0x8e
c0103947:	00 
c0103948:	c7 44 24 08 08 00 00 	mov    DWORD PTR [esp+0x8],0x8
c010394f:	00 
c0103950:	89 44 24 04          	mov    DWORD PTR [esp+0x4],eax
c0103954:	c7 04 24 02 00 00 00 	mov    DWORD PTR [esp],0x2
c010395b:	e8 b5 06 00 00       	call   c0104015 <idt_set_gate>
c0103960:	b8 86 20 10 c0       	mov    eax,0xc0102086
c0103965:	c7 44 24 0c 8e 00 00 	mov    DWORD PTR [esp+0xc],0x8e
c010396c:	00 
c010396d:	c7 44 24 08 08 00 00 	mov    DWORD PTR [esp+0x8],0x8
c0103974:	00 
c0103975:	89 44 24 04          	mov    DWORD PTR [esp+0x4],eax
c0103979:	c7 04 24 03 00 00 00 	mov    DWORD PTR [esp],0x3
c0103980:	e8 90 06 00 00       	call   c0104015 <idt_set_gate>
c0103985:	b8 90 20 10 c0       	mov    eax,0xc0102090
c010398a:	c7 44 24 0c 8e 00 00 	mov    DWORD PTR [esp+0xc],0x8e
c0103991:	00 
c0103992:	c7 44 24 08 08 00 00 	mov    DWORD PTR [esp+0x8],0x8
c0103999:	00 
c010399a:	89 44 24 04          	mov    DWORD PTR [esp+0x4],eax
c010399e:	c7 04 24 04 00 00 00 	mov    DWORD PTR [esp],0x4
c01039a5:	e8 6b 06 00 00       	call   c0104015 <idt_set_gate>
c01039aa:	b8 9a 20 10 c0       	mov    eax,0xc010209a
c01039af:	c7 44 24 0c 8e 00 00 	mov    DWORD PTR [esp+0xc],0x8e
c01039b6:	00 
c01039b7:	c7 44 24 08 08 00 00 	mov    DWORD PTR [esp+0x8],0x8
c01039be:	00 
c01039bf:	89 44 24 04          	mov    DWORD PTR [esp+0x4],eax
c01039c3:	c7 04 24 05 00 00 00 	mov    DWORD PTR [esp],0x5
c01039ca:	e8 46 06 00 00       	call   c0104015 <idt_set_gate>
c01039cf:	b8 a4 20 10 c0       	mov    eax,0xc01020a4
c01039d4:	c7 44 24 0c 8e 00 00 	mov    DWORD PTR [esp+0xc],0x8e
c01039db:	00 
c01039dc:	c7 44 24 08 08 00 00 	mov    DWORD PTR [esp+0x8],0x8
c01039e3:	00 
c01039e4:	89 44 24 04          	mov    DWORD PTR [esp+0x4],eax
c01039e8:	c7 04 24 06 00 00 00 	mov    DWORD PTR [esp],0x6
c01039ef:	e8 21 06 00 00       	call   c0104015 <idt_set_gate>
c01039f4:	b8 ae 20 10 c0       	mov    eax,0xc01020ae
c01039f9:	c7 44 24 0c 8e 00 00 	mov    DWORD PTR [esp+0xc],0x8e
c0103a00:	00 
c0103a01:	c7 44 24 08 08 00 00 	mov    DWORD PTR [esp+0x8],0x8
c0103a08:	00 
c0103a09:	89 44 24 04          	mov    DWORD PTR [esp+0x4],eax
c0103a0d:	c7 04 24 07 00 00 00 	mov    DWORD PTR [esp],0x7
c0103a14:	e8 fc 05 00 00       	call   c0104015 <idt_set_gate>
c0103a19:	b8 b8 20 10 c0       	mov    eax,0xc01020b8
c0103a1e:	c7 44 24 0c 8e 00 00 	mov    DWORD PTR [esp+0xc],0x8e
c0103a25:	00 
c0103a26:	c7 44 24 08 08 00 00 	mov    DWORD PTR [esp+0x8],0x8
c0103a2d:	00 
c0103a2e:	89 44 24 04          	mov    DWORD PTR [esp+0x4],eax
c0103a32:	c7 04 24 08 00 00 00 	mov    DWORD PTR [esp],0x8
c0103a39:	e8 d7 05 00 00       	call   c0104015 <idt_set_gate>
c0103a3e:	b8 c0 20 10 c0       	mov    eax,0xc01020c0
c0103a43:	c7 44 24 0c 8e 00 00 	mov    DWORD PTR [esp+0xc],0x8e
c0103a4a:	00 
c0103a4b:	c7 44 24 08 08 00 00 	mov    DWORD PTR [esp+0x8],0x8
c0103a52:	00 
c0103a53:	89 44 24 04          	mov    DWORD PTR [esp+0x4],eax
c0103a57:	c7 04 24 09 00 00 00 	mov    DWORD PTR [esp],0x9
c0103a5e:	e8 b2 05 00 00       	call   c0104015 <idt_set_gate>
c0103a63:	b8 ca 20 10 c0       	mov    eax,0xc01020ca
c0103a68:	c7 44 24 0c 8e 00 00 	mov    DWORD PTR [esp+0xc],0x8e
c0103a6f:	00 
c0103a70:	c7 44 24 08 08 00 00 	mov    DWORD PTR [esp+0x8],0x8
c0103a77:	00 
c0103a78:	89 44 24 04          	mov    DWORD PTR [esp+0x4],eax
c0103a7c:	c7 04 24 0a 00 00 00 	mov    DWORD PTR [esp],0xa
c0103a83:	e8 8d 05 00 00       	call   c0104015 <idt_set_gate>
c0103a88:	b8 d2 20 10 c0       	mov    eax,0xc01020d2
c0103a8d:	c7 44 24 0c 8e 00 00 	mov    DWORD PTR [esp+0xc],0x8e
c0103a94:	00 
c0103a95:	c7 44 24 08 08 00 00 	mov    DWORD PTR [esp+0x8],0x8
c0103a9c:	00 
c0103a9d:	89 44 24 04          	mov    DWORD PTR [esp+0x4],eax
c0103aa1:	c7 04 24 0b 00 00 00 	mov    DWORD PTR [esp],0xb
c0103aa8:	e8 68 05 00 00       	call   c0104015 <idt_set_gate>
c0103aad:	b8 da 20 10 c0       	mov    eax,0xc01020da
c0103ab2:	c7 44 24 0c 8e 00 00 	mov    DWORD PTR [esp+0xc],0x8e
c0103ab9:	00 
c0103aba:	c7 44 24 08 08 00 00 	mov    DWORD PTR [esp+0x8],0x8
c0103ac1:	00 
c0103ac2:	89 44 24 04          	mov    DWORD PTR [esp+0x4],eax
c0103ac6:	c7 04 24 0c 00 00 00 	mov    DWORD PTR [esp],0xc
c0103acd:	e8 43 05 00 00       	call   c0104015 <idt_set_gate>
c0103ad2:	b8 e2 20 10 c0       	mov    eax,0xc01020e2
c0103ad7:	c7 44 24 0c 8e 00 00 	mov    DWORD PTR [esp+0xc],0x8e
c0103ade:	00 
c0103adf:	c7 44 24 08 08 00 00 	mov    DWORD PTR [esp+0x8],0x8
c0103ae6:	00 
c0103ae7:	89 44 24 04          	mov    DWORD PTR [esp+0x4],eax
c0103aeb:	c7 04 24 0d 00 00 00 	mov    DWORD PTR [esp],0xd
c0103af2:	e8 1e 05 00 00       	call   c0104015 <idt_set_gate>
c0103af7:	b8 ea 20 10 c0       	mov    eax,0xc01020ea
c0103afc:	c7 44 24 0c 8e 00 00 	mov    DWORD PTR [esp+0xc],0x8e
c0103b03:	00 
c0103b04:	c7 44 24 08 08 00 00 	mov    DWORD PTR [esp+0x8],0x8
c0103b0b:	00 
c0103b0c:	89 44 24 04          	mov    DWORD PTR [esp+0x4],eax
c0103b10:	c7 04 24 0e 00 00 00 	mov    DWORD PTR [esp],0xe
c0103b17:	e8 f9 04 00 00       	call   c0104015 <idt_set_gate>
c0103b1c:	b8 ef 20 10 c0       	mov    eax,0xc01020ef
c0103b21:	c7 44 24 0c 8e 00 00 	mov    DWORD PTR [esp+0xc],0x8e
c0103b28:	00 
c0103b29:	c7 44 24 08 08 00 00 	mov    DWORD PTR [esp+0x8],0x8
c0103b30:	00 
c0103b31:	89 44 24 04          	mov    DWORD PTR [esp+0x4],eax
c0103b35:	c7 04 24 0f 00 00 00 	mov    DWORD PTR [esp],0xf
c0103b3c:	e8 d4 04 00 00       	call   c0104015 <idt_set_gate>
c0103b41:	b8 f6 20 10 c0       	mov    eax,0xc01020f6
c0103b46:	c7 44 24 0c 8e 00 00 	mov    DWORD PTR [esp+0xc],0x8e
c0103b4d:	00 
c0103b4e:	c7 44 24 08 08 00 00 	mov    DWORD PTR [esp+0x8],0x8
c0103b55:	00 
c0103b56:	89 44 24 04          	mov    DWORD PTR [esp+0x4],eax
c0103b5a:	c7 04 24 10 00 00 00 	mov    DWORD PTR [esp],0x10
c0103b61:	e8 af 04 00 00       	call   c0104015 <idt_set_gate>
c0103b66:	b8 fd 20 10 c0       	mov    eax,0xc01020fd
c0103b6b:	c7 44 24 0c 8e 00 00 	mov    DWORD PTR [esp+0xc],0x8e
c0103b72:	00 
c0103b73:	c7 44 24 08 08 00 00 	mov    DWORD PTR [esp+0x8],0x8
c0103b7a:	00 
c0103b7b:	89 44 24 04          	mov    DWORD PTR [esp+0x4],eax
c0103b7f:	c7 04 24 11 00 00 00 	mov    DWORD PTR [esp],0x11
c0103b86:	e8 8a 04 00 00       	call   c0104015 <idt_set_gate>
c0103b8b:	b8 02 21 10 c0       	mov    eax,0xc0102102
c0103b90:	c7 44 24 0c 8e 00 00 	mov    DWORD PTR [esp+0xc],0x8e
c0103b97:	00 
c0103b98:	c7 44 24 08 08 00 00 	mov    DWORD PTR [esp+0x8],0x8
c0103b9f:	00 
c0103ba0:	89 44 24 04          	mov    DWORD PTR [esp+0x4],eax
c0103ba4:	c7 04 24 12 00 00 00 	mov    DWORD PTR [esp],0x12
c0103bab:	e8 65 04 00 00       	call   c0104015 <idt_set_gate>
c0103bb0:	b8 09 21 10 c0       	mov    eax,0xc0102109
c0103bb5:	c7 44 24 0c 8e 00 00 	mov    DWORD PTR [esp+0xc],0x8e
c0103bbc:	00 
c0103bbd:	c7 44 24 08 08 00 00 	mov    DWORD PTR [esp+0x8],0x8
c0103bc4:	00 
c0103bc5:	89 44 24 04          	mov    DWORD PTR [esp+0x4],eax
c0103bc9:	c7 04 24 13 00 00 00 	mov    DWORD PTR [esp],0x13
c0103bd0:	e8 40 04 00 00       	call   c0104015 <idt_set_gate>
c0103bd5:	b8 10 21 10 c0       	mov    eax,0xc0102110
c0103bda:	c7 44 24 0c 8e 00 00 	mov    DWORD PTR [esp+0xc],0x8e
c0103be1:	00 
c0103be2:	c7 44 24 08 08 00 00 	mov    DWORD PTR [esp+0x8],0x8
c0103be9:	00 
c0103bea:	89 44 24 04          	mov    DWORD PTR [esp+0x4],eax
c0103bee:	c7 04 24 14 00 00 00 	mov    DWORD PTR [esp],0x14
c0103bf5:	e8 1b 04 00 00       	call   c0104015 <idt_set_gate>
c0103bfa:	b8 17 21 10 c0       	mov    eax,0xc0102117
c0103bff:	c7 44 24 0c 8e 00 00 	mov    DWORD PTR [esp+0xc],0x8e
c0103c06:	00 
c0103c07:	c7 44 24 08 08 00 00 	mov    DWORD PTR [esp+0x8],0x8
c0103c0e:	00 
c0103c0f:	89 44 24 04          	mov    DWORD PTR [esp+0x4],eax
c0103c13:	c7 04 24 15 00 00 00 	mov    DWORD PTR [esp],0x15
c0103c1a:	e8 f6 03 00 00       	call   c0104015 <idt_set_gate>
c0103c1f:	b8 1e 21 10 c0       	mov    eax,0xc010211e
c0103c24:	c7 44 24 0c 8e 00 00 	mov    DWORD PTR [esp+0xc],0x8e
c0103c2b:	00 
c0103c2c:	c7 44 24 08 08 00 00 	mov    DWORD PTR [esp+0x8],0x8
c0103c33:	00 
c0103c34:	89 44 24 04          	mov    DWORD PTR [esp+0x4],eax
c0103c38:	c7 04 24 16 00 00 00 	mov    DWORD PTR [esp],0x16
c0103c3f:	e8 d1 03 00 00       	call   c0104015 <idt_set_gate>
c0103c44:	b8 25 21 10 c0       	mov    eax,0xc0102125
c0103c49:	c7 44 24 0c 8e 00 00 	mov    DWORD PTR [esp+0xc],0x8e
c0103c50:	00 
c0103c51:	c7 44 24 08 08 00 00 	mov    DWORD PTR [esp+0x8],0x8
c0103c58:	00 
c0103c59:	89 44 24 04          	mov    DWORD PTR [esp+0x4],eax
c0103c5d:	c7 04 24 17 00 00 00 	mov    DWORD PTR [esp],0x17
c0103c64:	e8 ac 03 00 00       	call   c0104015 <idt_set_gate>
c0103c69:	b8 2c 21 10 c0       	mov    eax,0xc010212c
c0103c6e:	c7 44 24 0c 8e 00 00 	mov    DWORD PTR [esp+0xc],0x8e
c0103c75:	00 
c0103c76:	c7 44 24 08 08 00 00 	mov    DWORD PTR [esp+0x8],0x8
c0103c7d:	00 
c0103c7e:	89 44 24 04          	mov    DWORD PTR [esp+0x4],eax
c0103c82:	c7 04 24 18 00 00 00 	mov    DWORD PTR [esp],0x18
c0103c89:	e8 87 03 00 00       	call   c0104015 <idt_set_gate>
c0103c8e:	b8 33 21 10 c0       	mov    eax,0xc0102133
c0103c93:	c7 44 24 0c 8e 00 00 	mov    DWORD PTR [esp+0xc],0x8e
c0103c9a:	00 
c0103c9b:	c7 44 24 08 08 00 00 	mov    DWORD PTR [esp+0x8],0x8
c0103ca2:	00 
c0103ca3:	89 44 24 04          	mov    DWORD PTR [esp+0x4],eax
c0103ca7:	c7 04 24 19 00 00 00 	mov    DWORD PTR [esp],0x19
c0103cae:	e8 62 03 00 00       	call   c0104015 <idt_set_gate>
c0103cb3:	b8 3a 21 10 c0       	mov    eax,0xc010213a
c0103cb8:	c7 44 24 0c 8e 00 00 	mov    DWORD PTR [esp+0xc],0x8e
c0103cbf:	00 
c0103cc0:	c7 44 24 08 08 00 00 	mov    DWORD PTR [esp+0x8],0x8
c0103cc7:	00 
c0103cc8:	89 44 24 04          	mov    DWORD PTR [esp+0x4],eax
c0103ccc:	c7 04 24 1a 00 00 00 	mov    DWORD PTR [esp],0x1a
c0103cd3:	e8 3d 03 00 00       	call   c0104015 <idt_set_gate>
c0103cd8:	b8 41 21 10 c0       	mov    eax,0xc0102141
c0103cdd:	c7 44 24 0c 8e 00 00 	mov    DWORD PTR [esp+0xc],0x8e
c0103ce4:	00 
c0103ce5:	c7 44 24 08 08 00 00 	mov    DWORD PTR [esp+0x8],0x8
c0103cec:	00 
c0103ced:	89 44 24 04          	mov    DWORD PTR [esp+0x4],eax
c0103cf1:	c7 04 24 1b 00 00 00 	mov    DWORD PTR [esp],0x1b
c0103cf8:	e8 18 03 00 00       	call   c0104015 <idt_set_gate>
c0103cfd:	b8 48 21 10 c0       	mov    eax,0xc0102148
c0103d02:	c7 44 24 0c 8e 00 00 	mov    DWORD PTR [esp+0xc],0x8e
c0103d09:	00 
c0103d0a:	c7 44 24 08 08 00 00 	mov    DWORD PTR [esp+0x8],0x8
c0103d11:	00 
c0103d12:	89 44 24 04          	mov    DWORD PTR [esp+0x4],eax
c0103d16:	c7 04 24 1c 00 00 00 	mov    DWORD PTR [esp],0x1c
c0103d1d:	e8 f3 02 00 00       	call   c0104015 <idt_set_gate>
c0103d22:	b8 4f 21 10 c0       	mov    eax,0xc010214f
c0103d27:	c7 44 24 0c 8e 00 00 	mov    DWORD PTR [esp+0xc],0x8e
c0103d2e:	00 
c0103d2f:	c7 44 24 08 08 00 00 	mov    DWORD PTR [esp+0x8],0x8
c0103d36:	00 
c0103d37:	89 44 24 04          	mov    DWORD PTR [esp+0x4],eax
c0103d3b:	c7 04 24 1d 00 00 00 	mov    DWORD PTR [esp],0x1d
c0103d42:	e8 ce 02 00 00       	call   c0104015 <idt_set_gate>
c0103d47:	b8 56 21 10 c0       	mov    eax,0xc0102156
c0103d4c:	c7 44 24 0c 8e 00 00 	mov    DWORD PTR [esp+0xc],0x8e
c0103d53:	00 
c0103d54:	c7 44 24 08 08 00 00 	mov    DWORD PTR [esp+0x8],0x8
c0103d5b:	00 
c0103d5c:	89 44 24 04          	mov    DWORD PTR [esp+0x4],eax
c0103d60:	c7 04 24 1e 00 00 00 	mov    DWORD PTR [esp],0x1e
c0103d67:	e8 a9 02 00 00       	call   c0104015 <idt_set_gate>
c0103d6c:	b8 5d 21 10 c0       	mov    eax,0xc010215d
c0103d71:	c7 44 24 0c 8e 00 00 	mov    DWORD PTR [esp+0xc],0x8e
c0103d78:	00 
c0103d79:	c7 44 24 08 08 00 00 	mov    DWORD PTR [esp+0x8],0x8
c0103d80:	00 
c0103d81:	89 44 24 04          	mov    DWORD PTR [esp+0x4],eax
c0103d85:	c7 04 24 1f 00 00 00 	mov    DWORD PTR [esp],0x1f
c0103d8c:	e8 84 02 00 00       	call   c0104015 <idt_set_gate>
c0103d91:	b8 9a 21 10 c0       	mov    eax,0xc010219a
c0103d96:	c7 44 24 0c 8e 00 00 	mov    DWORD PTR [esp+0xc],0x8e
c0103d9d:	00 
c0103d9e:	c7 44 24 08 08 00 00 	mov    DWORD PTR [esp+0x8],0x8
c0103da5:	00 
c0103da6:	89 44 24 04          	mov    DWORD PTR [esp+0x4],eax
c0103daa:	c7 04 24 20 00 00 00 	mov    DWORD PTR [esp],0x20
c0103db1:	e8 5f 02 00 00       	call   c0104015 <idt_set_gate>
c0103db6:	b8 a1 21 10 c0       	mov    eax,0xc01021a1
c0103dbb:	c7 44 24 0c 8e 00 00 	mov    DWORD PTR [esp+0xc],0x8e
c0103dc2:	00 
c0103dc3:	c7 44 24 08 08 00 00 	mov    DWORD PTR [esp+0x8],0x8
c0103dca:	00 
c0103dcb:	89 44 24 04          	mov    DWORD PTR [esp+0x4],eax
c0103dcf:	c7 04 24 21 00 00 00 	mov    DWORD PTR [esp],0x21
c0103dd6:	e8 3a 02 00 00       	call   c0104015 <idt_set_gate>
c0103ddb:	b8 a8 21 10 c0       	mov    eax,0xc01021a8
c0103de0:	c7 44 24 0c 8e 00 00 	mov    DWORD PTR [esp+0xc],0x8e
c0103de7:	00 
c0103de8:	c7 44 24 08 08 00 00 	mov    DWORD PTR [esp+0x8],0x8
c0103def:	00 
c0103df0:	89 44 24 04          	mov    DWORD PTR [esp+0x4],eax
c0103df4:	c7 04 24 22 00 00 00 	mov    DWORD PTR [esp],0x22
c0103dfb:	e8 15 02 00 00       	call   c0104015 <idt_set_gate>
c0103e00:	b8 af 21 10 c0       	mov    eax,0xc01021af
c0103e05:	c7 44 24 0c 8e 00 00 	mov    DWORD PTR [esp+0xc],0x8e
c0103e0c:	00 
c0103e0d:	c7 44 24 08 08 00 00 	mov    DWORD PTR [esp+0x8],0x8
c0103e14:	00 
c0103e15:	89 44 24 04          	mov    DWORD PTR [esp+0x4],eax
c0103e19:	c7 04 24 23 00 00 00 	mov    DWORD PTR [esp],0x23
c0103e20:	e8 f0 01 00 00       	call   c0104015 <idt_set_gate>
c0103e25:	b8 b6 21 10 c0       	mov    eax,0xc01021b6
c0103e2a:	c7 44 24 0c 8e 00 00 	mov    DWORD PTR [esp+0xc],0x8e
c0103e31:	00 
c0103e32:	c7 44 24 08 08 00 00 	mov    DWORD PTR [esp+0x8],0x8
c0103e39:	00 
c0103e3a:	89 44 24 04          	mov    DWORD PTR [esp+0x4],eax
c0103e3e:	c7 04 24 24 00 00 00 	mov    DWORD PTR [esp],0x24
c0103e45:	e8 cb 01 00 00       	call   c0104015 <idt_set_gate>
c0103e4a:	b8 bd 21 10 c0       	mov    eax,0xc01021bd
c0103e4f:	c7 44 24 0c 8e 00 00 	mov    DWORD PTR [esp+0xc],0x8e
c0103e56:	00 
c0103e57:	c7 44 24 08 08 00 00 	mov    DWORD PTR [esp+0x8],0x8
c0103e5e:	00 
c0103e5f:	89 44 24 04          	mov    DWORD PTR [esp+0x4],eax
c0103e63:	c7 04 24 25 00 00 00 	mov    DWORD PTR [esp],0x25
c0103e6a:	e8 a6 01 00 00       	call   c0104015 <idt_set_gate>
c0103e6f:	b8 c4 21 10 c0       	mov    eax,0xc01021c4
c0103e74:	c7 44 24 0c 8e 00 00 	mov    DWORD PTR [esp+0xc],0x8e
c0103e7b:	00 
c0103e7c:	c7 44 24 08 08 00 00 	mov    DWORD PTR [esp+0x8],0x8
c0103e83:	00 
c0103e84:	89 44 24 04          	mov    DWORD PTR [esp+0x4],eax
c0103e88:	c7 04 24 26 00 00 00 	mov    DWORD PTR [esp],0x26
c0103e8f:	e8 81 01 00 00       	call   c0104015 <idt_set_gate>
c0103e94:	b8 cb 21 10 c0       	mov    eax,0xc01021cb
c0103e99:	c7 44 24 0c 8e 00 00 	mov    DWORD PTR [esp+0xc],0x8e
c0103ea0:	00 
c0103ea1:	c7 44 24 08 08 00 00 	mov    DWORD PTR [esp+0x8],0x8
c0103ea8:	00 
c0103ea9:	89 44 24 04          	mov    DWORD PTR [esp+0x4],eax
c0103ead:	c7 04 24 27 00 00 00 	mov    DWORD PTR [esp],0x27
c0103eb4:	e8 5c 01 00 00       	call   c0104015 <idt_set_gate>
c0103eb9:	b8 d2 21 10 c0       	mov    eax,0xc01021d2
c0103ebe:	c7 44 24 0c 8e 00 00 	mov    DWORD PTR [esp+0xc],0x8e
c0103ec5:	00 
c0103ec6:	c7 44 24 08 08 00 00 	mov    DWORD PTR [esp+0x8],0x8
c0103ecd:	00 
c0103ece:	89 44 24 04          	mov    DWORD PTR [esp+0x4],eax
c0103ed2:	c7 04 24 28 00 00 00 	mov    DWORD PTR [esp],0x28
c0103ed9:	e8 37 01 00 00       	call   c0104015 <idt_set_gate>
c0103ede:	b8 d9 21 10 c0       	mov    eax,0xc01021d9
c0103ee3:	c7 44 24 0c 8e 00 00 	mov    DWORD PTR [esp+0xc],0x8e
c0103eea:	00 
c0103eeb:	c7 44 24 08 08 00 00 	mov    DWORD PTR [esp+0x8],0x8
c0103ef2:	00 
c0103ef3:	89 44 24 04          	mov    DWORD PTR [esp+0x4],eax
c0103ef7:	c7 04 24 29 00 00 00 	mov    DWORD PTR [esp],0x29
c0103efe:	e8 12 01 00 00       	call   c0104015 <idt_set_gate>
c0103f03:	b8 e0 21 10 c0       	mov    eax,0xc01021e0
c0103f08:	c7 44 24 0c 8e 00 00 	mov    DWORD PTR [esp+0xc],0x8e
c0103f0f:	00 
c0103f10:	c7 44 24 08 08 00 00 	mov    DWORD PTR [esp+0x8],0x8
c0103f17:	00 
c0103f18:	89 44 24 04          	mov    DWORD PTR [esp+0x4],eax
c0103f1c:	c7 04 24 2a 00 00 00 	mov    DWORD PTR [esp],0x2a
c0103f23:	e8 ed 00 00 00       	call   c0104015 <idt_set_gate>
c0103f28:	b8 e7 21 10 c0       	mov    eax,0xc01021e7
c0103f2d:	c7 44 24 0c 8e 00 00 	mov    DWORD PTR [esp+0xc],0x8e
c0103f34:	00 
c0103f35:	c7 44 24 08 08 00 00 	mov    DWORD PTR [esp+0x8],0x8
c0103f3c:	00 
c0103f3d:	89 44 24 04          	mov    DWORD PTR [esp+0x4],eax
c0103f41:	c7 04 24 2b 00 00 00 	mov    DWORD PTR [esp],0x2b
c0103f48:	e8 c8 00 00 00       	call   c0104015 <idt_set_gate>
c0103f4d:	b8 ee 21 10 c0       	mov    eax,0xc01021ee
c0103f52:	c7 44 24 0c 8e 00 00 	mov    DWORD PTR [esp+0xc],0x8e
c0103f59:	00 
c0103f5a:	c7 44 24 08 08 00 00 	mov    DWORD PTR [esp+0x8],0x8
c0103f61:	00 
c0103f62:	89 44 24 04          	mov    DWORD PTR [esp+0x4],eax
c0103f66:	c7 04 24 2c 00 00 00 	mov    DWORD PTR [esp],0x2c
c0103f6d:	e8 a3 00 00 00       	call   c0104015 <idt_set_gate>
c0103f72:	b8 f5 21 10 c0       	mov    eax,0xc01021f5
c0103f77:	c7 44 24 0c 8e 00 00 	mov    DWORD PTR [esp+0xc],0x8e
c0103f7e:	00 
c0103f7f:	c7 44 24 08 08 00 00 	mov    DWORD PTR [esp+0x8],0x8
c0103f86:	00 
c0103f87:	89 44 24 04          	mov    DWORD PTR [esp+0x4],eax
c0103f8b:	c7 04 24 2d 00 00 00 	mov    DWORD PTR [esp],0x2d
c0103f92:	e8 7e 00 00 00       	call   c0104015 <idt_set_gate>
c0103f97:	b8 fc 21 10 c0       	mov    eax,0xc01021fc
c0103f9c:	c7 44 24 0c 8e 00 00 	mov    DWORD PTR [esp+0xc],0x8e
c0103fa3:	00 
c0103fa4:	c7 44 24 08 08 00 00 	mov    DWORD PTR [esp+0x8],0x8
c0103fab:	00 
c0103fac:	89 44 24 04          	mov    DWORD PTR [esp+0x4],eax
c0103fb0:	c7 04 24 2e 00 00 00 	mov    DWORD PTR [esp],0x2e
c0103fb7:	e8 59 00 00 00       	call   c0104015 <idt_set_gate>
c0103fbc:	b8 03 22 10 c0       	mov    eax,0xc0102203
c0103fc1:	c7 44 24 0c 8e 00 00 	mov    DWORD PTR [esp+0xc],0x8e
c0103fc8:	00 
c0103fc9:	c7 44 24 08 08 00 00 	mov    DWORD PTR [esp+0x8],0x8
c0103fd0:	00 
c0103fd1:	89 44 24 04          	mov    DWORD PTR [esp+0x4],eax
c0103fd5:	c7 04 24 2f 00 00 00 	mov    DWORD PTR [esp],0x2f
c0103fdc:	e8 34 00 00 00       	call   c0104015 <idt_set_gate>
c0103fe1:	b8 64 21 10 c0       	mov    eax,0xc0102164
c0103fe6:	c7 44 24 0c 8e 00 00 	mov    DWORD PTR [esp+0xc],0x8e
c0103fed:	00 
c0103fee:	c7 44 24 08 08 00 00 	mov    DWORD PTR [esp+0x8],0x8
c0103ff5:	00 
c0103ff6:	89 44 24 04          	mov    DWORD PTR [esp+0x4],eax
c0103ffa:	c7 04 24 ff 00 00 00 	mov    DWORD PTR [esp],0xff
c0104001:	e8 0f 00 00 00       	call   c0104015 <idt_set_gate>
c0104006:	b8 e0 a0 20 c0       	mov    eax,0xc020a0e0
c010400b:	89 04 24             	mov    DWORD PTR [esp],eax
c010400e:	e8 4d e0 ff ff       	call   c0102060 <idt_flush>
c0104013:	c9                   	leave  
c0104014:	c3                   	ret    

c0104015 <idt_set_gate>:
c0104015:	55                   	push   ebp
c0104016:	89 e5                	mov    ebp,esp
c0104018:	83 ec 0c             	sub    esp,0xc
c010401b:	8b 4d 08             	mov    ecx,DWORD PTR [ebp+0x8]
c010401e:	8b 55 10             	mov    edx,DWORD PTR [ebp+0x10]
c0104021:	8b 45 14             	mov    eax,DWORD PTR [ebp+0x14]
c0104024:	88 4d fc             	mov    BYTE PTR [ebp-0x4],cl
c0104027:	66 89 55 f8          	mov    WORD PTR [ebp-0x8],dx
c010402b:	88 45 f4             	mov    BYTE PTR [ebp-0xc],al
c010402e:	0f b6 45 fc          	movzx  eax,BYTE PTR [ebp-0x4]
c0104032:	8b 55 0c             	mov    edx,DWORD PTR [ebp+0xc]
c0104035:	66 89 14 c5 00 a1 20 	mov    WORD PTR [eax*8-0x3fdf5f00],dx
c010403c:	c0 
c010403d:	0f b6 45 fc          	movzx  eax,BYTE PTR [ebp-0x4]
c0104041:	8b 55 0c             	mov    edx,DWORD PTR [ebp+0xc]
c0104044:	c1 ea 10             	shr    edx,0x10
c0104047:	66 89 14 c5 06 a1 20 	mov    WORD PTR [eax*8-0x3fdf5efa],dx
c010404e:	c0 
c010404f:	0f b6 45 fc          	movzx  eax,BYTE PTR [ebp-0x4]
c0104053:	0f b7 55 f8          	movzx  edx,WORD PTR [ebp-0x8]
c0104057:	66 89 14 c5 02 a1 20 	mov    WORD PTR [eax*8-0x3fdf5efe],dx
c010405e:	c0 
c010405f:	0f b6 45 fc          	movzx  eax,BYTE PTR [ebp-0x4]
c0104063:	c6 04 c5 04 a1 20 c0 	mov    BYTE PTR [eax*8-0x3fdf5efc],0x0
c010406a:	00 
c010406b:	0f b6 45 fc          	movzx  eax,BYTE PTR [ebp-0x4]
c010406f:	0f b6 55 f4          	movzx  edx,BYTE PTR [ebp-0xc]
c0104073:	88 14 c5 05 a1 20 c0 	mov    BYTE PTR [eax*8-0x3fdf5efb],dl
c010407a:	c9                   	leave  
c010407b:	c3                   	ret    

c010407c <isr_handler>:
c010407c:	55                   	push   ebp
c010407d:	89 e5                	mov    ebp,esp
c010407f:	83 ec 18             	sub    esp,0x18
c0104082:	8b 45 08             	mov    eax,DWORD PTR [ebp+0x8]
c0104085:	8b 40 24             	mov    eax,DWORD PTR [eax+0x24]
c0104088:	8b 04 85 00 a9 20 c0 	mov    eax,DWORD PTR [eax*4-0x3fdf5700]
c010408f:	85 c0                	test   eax,eax
c0104091:	74 17                	je     c01040aa <isr_handler+0x2e>
c0104093:	8b 45 08             	mov    eax,DWORD PTR [ebp+0x8]
c0104096:	8b 40 24             	mov    eax,DWORD PTR [eax+0x24]
c0104099:	8b 04 85 00 a9 20 c0 	mov    eax,DWORD PTR [eax*4-0x3fdf5700]
c01040a0:	8b 55 08             	mov    edx,DWORD PTR [ebp+0x8]
c01040a3:	89 14 24             	mov    DWORD PTR [esp],edx
c01040a6:	ff d0                	call   eax
c01040a8:	eb 26                	jmp    c01040d0 <isr_handler+0x54>
c01040aa:	8b 45 08             	mov    eax,DWORD PTR [ebp+0x8]
c01040ad:	8b 40 24             	mov    eax,DWORD PTR [eax+0x24]
c01040b0:	89 44 24 0c          	mov    DWORD PTR [esp+0xc],eax
c01040b4:	c7 44 24 08 a3 52 10 	mov    DWORD PTR [esp+0x8],0xc01052a3
c01040bb:	c0 
c01040bc:	c7 44 24 04 01 00 00 	mov    DWORD PTR [esp+0x4],0x1
c01040c3:	00 
c01040c4:	c7 04 24 00 00 00 00 	mov    DWORD PTR [esp],0x0
c01040cb:	e8 c6 e4 ff ff       	call   c0102596 <printk_color>
c01040d0:	c9                   	leave  
c01040d1:	c3                   	ret    

c01040d2 <register_interrupt_handler>:
c01040d2:	55                   	push   ebp
c01040d3:	89 e5                	mov    ebp,esp
c01040d5:	83 ec 04             	sub    esp,0x4
c01040d8:	8b 45 08             	mov    eax,DWORD PTR [ebp+0x8]
c01040db:	88 45 fc             	mov    BYTE PTR [ebp-0x4],al
c01040de:	0f b6 45 fc          	movzx  eax,BYTE PTR [ebp-0x4]
c01040e2:	8b 55 0c             	mov    edx,DWORD PTR [ebp+0xc]
c01040e5:	89 14 85 00 a9 20 c0 	mov    DWORD PTR [eax*4-0x3fdf5700],edx
c01040ec:	c9                   	leave  
c01040ed:	c3                   	ret    

c01040ee <irq_handler>:
c01040ee:	55                   	push   ebp
c01040ef:	89 e5                	mov    ebp,esp
c01040f1:	83 ec 18             	sub    esp,0x18
c01040f4:	8b 45 08             	mov    eax,DWORD PTR [ebp+0x8]
c01040f7:	8b 40 24             	mov    eax,DWORD PTR [eax+0x24]
c01040fa:	83 f8 27             	cmp    eax,0x27
c01040fd:	76 14                	jbe    c0104113 <irq_handler+0x25>
c01040ff:	c7 44 24 04 20 00 00 	mov    DWORD PTR [esp+0x4],0x20
c0104106:	00 
c0104107:	c7 04 24 a0 00 00 00 	mov    DWORD PTR [esp],0xa0
c010410e:	e8 11 0c 00 00       	call   c0104d24 <outb>
c0104113:	c7 44 24 04 20 00 00 	mov    DWORD PTR [esp+0x4],0x20
c010411a:	00 
c010411b:	c7 04 24 20 00 00 00 	mov    DWORD PTR [esp],0x20
c0104122:	e8 fd 0b 00 00       	call   c0104d24 <outb>
c0104127:	8b 45 08             	mov    eax,DWORD PTR [ebp+0x8]
c010412a:	8b 40 24             	mov    eax,DWORD PTR [eax+0x24]
c010412d:	8b 04 85 00 a9 20 c0 	mov    eax,DWORD PTR [eax*4-0x3fdf5700]
c0104134:	85 c0                	test   eax,eax
c0104136:	74 15                	je     c010414d <irq_handler+0x5f>
c0104138:	8b 45 08             	mov    eax,DWORD PTR [ebp+0x8]
c010413b:	8b 40 24             	mov    eax,DWORD PTR [eax+0x24]
c010413e:	8b 04 85 00 a9 20 c0 	mov    eax,DWORD PTR [eax*4-0x3fdf5700]
c0104145:	8b 55 08             	mov    edx,DWORD PTR [ebp+0x8]
c0104148:	89 14 24             	mov    DWORD PTR [esp],edx
c010414b:	ff d0                	call   eax
c010414d:	c9                   	leave  
c010414e:	c3                   	ret    
c010414f:	90                   	nop

c0104150 <page_fault>:
c0104150:	55                   	push   ebp
c0104151:	89 e5                	mov    ebp,esp
c0104153:	53                   	push   ebx
c0104154:	83 ec 24             	sub    esp,0x24
c0104157:	0f 20 d3             	mov    ebx,cr2
c010415a:	89 5d f4             	mov    DWORD PTR [ebp-0xc],ebx
c010415d:	8b 45 08             	mov    eax,DWORD PTR [ebp+0x8]
c0104160:	8b 40 2c             	mov    eax,DWORD PTR [eax+0x2c]
c0104163:	8b 55 f4             	mov    edx,DWORD PTR [ebp-0xc]
c0104166:	89 54 24 08          	mov    DWORD PTR [esp+0x8],edx
c010416a:	89 44 24 04          	mov    DWORD PTR [esp+0x4],eax
c010416e:	c7 04 24 bc 52 10 c0 	mov    DWORD PTR [esp],0xc01052bc
c0104175:	e8 da e3 ff ff       	call   c0102554 <printk>
c010417a:	8b 45 08             	mov    eax,DWORD PTR [ebp+0x8]
c010417d:	8b 40 28             	mov    eax,DWORD PTR [eax+0x28]
c0104180:	89 44 24 04          	mov    DWORD PTR [esp+0x4],eax
c0104184:	c7 04 24 f4 52 10 c0 	mov    DWORD PTR [esp],0xc01052f4
c010418b:	e8 c4 e3 ff ff       	call   c0102554 <printk>
c0104190:	8b 45 08             	mov    eax,DWORD PTR [ebp+0x8]
c0104193:	8b 40 28             	mov    eax,DWORD PTR [eax+0x28]
c0104196:	83 e0 01             	and    eax,0x1
c0104199:	85 c0                	test   eax,eax
c010419b:	75 1c                	jne    c01041b9 <page_fault+0x69>
c010419d:	c7 44 24 08 04 53 10 	mov    DWORD PTR [esp+0x8],0xc0105304
c01041a4:	c0 
c01041a5:	c7 44 24 04 04 00 00 	mov    DWORD PTR [esp+0x4],0x4
c01041ac:	00 
c01041ad:	c7 04 24 00 00 00 00 	mov    DWORD PTR [esp],0x0
c01041b4:	e8 dd e3 ff ff       	call   c0102596 <printk_color>
c01041b9:	8b 45 08             	mov    eax,DWORD PTR [ebp+0x8]
c01041bc:	8b 40 28             	mov    eax,DWORD PTR [eax+0x28]
c01041bf:	83 e0 02             	and    eax,0x2
c01041c2:	85 c0                	test   eax,eax
c01041c4:	74 1e                	je     c01041e4 <page_fault+0x94>
c01041c6:	c7 44 24 08 26 53 10 	mov    DWORD PTR [esp+0x8],0xc0105326
c01041cd:	c0 
c01041ce:	c7 44 24 04 04 00 00 	mov    DWORD PTR [esp+0x4],0x4
c01041d5:	00 
c01041d6:	c7 04 24 00 00 00 00 	mov    DWORD PTR [esp],0x0
c01041dd:	e8 b4 e3 ff ff       	call   c0102596 <printk_color>
c01041e2:	eb 1c                	jmp    c0104200 <page_fault+0xb0>
c01041e4:	c7 44 24 08 34 53 10 	mov    DWORD PTR [esp+0x8],0xc0105334
c01041eb:	c0 
c01041ec:	c7 44 24 04 04 00 00 	mov    DWORD PTR [esp+0x4],0x4
c01041f3:	00 
c01041f4:	c7 04 24 00 00 00 00 	mov    DWORD PTR [esp],0x0
c01041fb:	e8 96 e3 ff ff       	call   c0102596 <printk_color>
c0104200:	8b 45 08             	mov    eax,DWORD PTR [ebp+0x8]
c0104203:	8b 40 28             	mov    eax,DWORD PTR [eax+0x28]
c0104206:	83 e0 04             	and    eax,0x4
c0104209:	85 c0                	test   eax,eax
c010420b:	74 1e                	je     c010422b <page_fault+0xdb>
c010420d:	c7 44 24 08 41 53 10 	mov    DWORD PTR [esp+0x8],0xc0105341
c0104214:	c0 
c0104215:	c7 44 24 04 04 00 00 	mov    DWORD PTR [esp+0x4],0x4
c010421c:	00 
c010421d:	c7 04 24 00 00 00 00 	mov    DWORD PTR [esp],0x0
c0104224:	e8 6d e3 ff ff       	call   c0102596 <printk_color>
c0104229:	eb 1c                	jmp    c0104247 <page_fault+0xf7>
c010422b:	c7 44 24 08 50 53 10 	mov    DWORD PTR [esp+0x8],0xc0105350
c0104232:	c0 
c0104233:	c7 44 24 04 04 00 00 	mov    DWORD PTR [esp+0x4],0x4
c010423a:	00 
c010423b:	c7 04 24 00 00 00 00 	mov    DWORD PTR [esp],0x0
c0104242:	e8 4f e3 ff ff       	call   c0102596 <printk_color>
c0104247:	8b 45 08             	mov    eax,DWORD PTR [ebp+0x8]
c010424a:	8b 40 28             	mov    eax,DWORD PTR [eax+0x28]
c010424d:	83 e0 08             	and    eax,0x8
c0104250:	85 c0                	test   eax,eax
c0104252:	74 1c                	je     c0104270 <page_fault+0x120>
c0104254:	c7 44 24 08 64 53 10 	mov    DWORD PTR [esp+0x8],0xc0105364
c010425b:	c0 
c010425c:	c7 44 24 04 04 00 00 	mov    DWORD PTR [esp+0x4],0x4
c0104263:	00 
c0104264:	c7 04 24 00 00 00 00 	mov    DWORD PTR [esp],0x0
c010426b:	e8 26 e3 ff ff       	call   c0102596 <printk_color>
c0104270:	8b 45 08             	mov    eax,DWORD PTR [ebp+0x8]
c0104273:	8b 40 28             	mov    eax,DWORD PTR [eax+0x28]
c0104276:	83 e0 10             	and    eax,0x10
c0104279:	85 c0                	test   eax,eax
c010427b:	74 1c                	je     c0104299 <page_fault+0x149>
c010427d:	c7 44 24 08 88 53 10 	mov    DWORD PTR [esp+0x8],0xc0105388
c0104284:	c0 
c0104285:	c7 44 24 04 04 00 00 	mov    DWORD PTR [esp+0x4],0x4
c010428c:	00 
c010428d:	c7 04 24 00 00 00 00 	mov    DWORD PTR [esp],0x0
c0104294:	e8 fd e2 ff ff       	call   c0102596 <printk_color>
c0104299:	eb fe                	jmp    c0104299 <page_fault+0x149>
c010429b:	90                   	nop

c010429c <show_memory_map>:
c010429c:	55                   	push   ebp
c010429d:	89 e5                	mov    ebp,esp
c010429f:	56                   	push   esi
c01042a0:	53                   	push   ebx
c01042a1:	83 ec 30             	sub    esp,0x30
c01042a4:	a1 04 80 20 c0       	mov    eax,ds:0xc0208004
c01042a9:	8b 40 30             	mov    eax,DWORD PTR [eax+0x30]
c01042ac:	89 45 f0             	mov    DWORD PTR [ebp-0x10],eax
c01042af:	a1 04 80 20 c0       	mov    eax,ds:0xc0208004
c01042b4:	8b 40 2c             	mov    eax,DWORD PTR [eax+0x2c]
c01042b7:	89 45 ec             	mov    DWORD PTR [ebp-0x14],eax
c01042ba:	c7 04 24 bc 53 10 c0 	mov    DWORD PTR [esp],0xc01053bc
c01042c1:	e8 8e e2 ff ff       	call   c0102554 <printk>
c01042c6:	8b 45 f0             	mov    eax,DWORD PTR [ebp-0x10]
c01042c9:	89 45 f4             	mov    DWORD PTR [ebp-0xc],eax
c01042cc:	8b 45 f0             	mov    eax,DWORD PTR [ebp-0x10]
c01042cf:	89 45 f4             	mov    DWORD PTR [ebp-0xc],eax
c01042d2:	eb 42                	jmp    c0104316 <show_memory_map+0x7a>
c01042d4:	8b 45 f4             	mov    eax,DWORD PTR [ebp-0xc]
c01042d7:	8b 70 14             	mov    esi,DWORD PTR [eax+0x14]
c01042da:	8b 45 f4             	mov    eax,DWORD PTR [ebp-0xc]
c01042dd:	8b 58 0c             	mov    ebx,DWORD PTR [eax+0xc]
c01042e0:	8b 45 f4             	mov    eax,DWORD PTR [ebp-0xc]
c01042e3:	8b 48 10             	mov    ecx,DWORD PTR [eax+0x10]
c01042e6:	8b 45 f4             	mov    eax,DWORD PTR [ebp-0xc]
c01042e9:	8b 50 04             	mov    edx,DWORD PTR [eax+0x4]
c01042ec:	8b 45 f4             	mov    eax,DWORD PTR [ebp-0xc]
c01042ef:	8b 40 08             	mov    eax,DWORD PTR [eax+0x8]
c01042f2:	89 74 24 14          	mov    DWORD PTR [esp+0x14],esi
c01042f6:	89 5c 24 10          	mov    DWORD PTR [esp+0x10],ebx
c01042fa:	89 4c 24 0c          	mov    DWORD PTR [esp+0xc],ecx
c01042fe:	89 54 24 08          	mov    DWORD PTR [esp+0x8],edx
c0104302:	89 44 24 04          	mov    DWORD PTR [esp+0x4],eax
c0104306:	c7 04 24 cc 53 10 c0 	mov    DWORD PTR [esp],0xc01053cc
c010430d:	e8 42 e2 ff ff       	call   c0102554 <printk>
c0104312:	83 45 f4 18          	add    DWORD PTR [ebp-0xc],0x18
c0104316:	8b 45 f4             	mov    eax,DWORD PTR [ebp-0xc]
c0104319:	8b 55 ec             	mov    edx,DWORD PTR [ebp-0x14]
c010431c:	8b 4d f0             	mov    ecx,DWORD PTR [ebp-0x10]
c010431f:	01 ca                	add    edx,ecx
c0104321:	39 d0                	cmp    eax,edx
c0104323:	72 af                	jb     c01042d4 <show_memory_map+0x38>
c0104325:	83 c4 30             	add    esp,0x30
c0104328:	5b                   	pop    ebx
c0104329:	5e                   	pop    esi
c010432a:	5d                   	pop    ebp
c010432b:	c3                   	ret    

c010432c <init_pmm>:
c010432c:	55                   	push   ebp
c010432d:	89 e5                	mov    ebp,esp
c010432f:	83 ec 38             	sub    esp,0x38
c0104332:	a1 04 80 20 c0       	mov    eax,ds:0xc0208004
c0104337:	8b 40 30             	mov    eax,DWORD PTR [eax+0x30]
c010433a:	89 45 ec             	mov    DWORD PTR [ebp-0x14],eax
c010433d:	a1 04 80 20 c0       	mov    eax,ds:0xc0208004
c0104342:	8b 50 2c             	mov    edx,DWORD PTR [eax+0x2c]
c0104345:	89 d0                	mov    eax,edx
c0104347:	01 c0                	add    eax,eax
c0104349:	01 d0                	add    eax,edx
c010434b:	c1 e0 03             	shl    eax,0x3
c010434e:	89 c2                	mov    edx,eax
c0104350:	a1 04 80 20 c0       	mov    eax,ds:0xc0208004
c0104355:	8b 40 30             	mov    eax,DWORD PTR [eax+0x30]
c0104358:	01 d0                	add    eax,edx
c010435a:	89 45 e8             	mov    DWORD PTR [ebp-0x18],eax
c010435d:	8b 45 ec             	mov    eax,DWORD PTR [ebp-0x14]
c0104360:	89 45 f4             	mov    DWORD PTR [ebp-0xc],eax
c0104363:	eb 76                	jmp    c01043db <init_pmm+0xaf>
c0104365:	8b 45 f4             	mov    eax,DWORD PTR [ebp-0xc]
c0104368:	8b 40 14             	mov    eax,DWORD PTR [eax+0x14]
c010436b:	83 f8 01             	cmp    eax,0x1
c010436e:	75 67                	jne    c01043d7 <init_pmm+0xab>
c0104370:	8b 45 f4             	mov    eax,DWORD PTR [ebp-0xc]
c0104373:	8b 40 04             	mov    eax,DWORD PTR [eax+0x4]
c0104376:	3d 00 00 10 00       	cmp    eax,0x100000
c010437b:	75 5a                	jne    c01043d7 <init_pmm+0xab>
c010437d:	8b 45 f4             	mov    eax,DWORD PTR [ebp-0xc]
c0104380:	8b 50 04             	mov    edx,DWORD PTR [eax+0x4]
c0104383:	b8 00 00 10 c0       	mov    eax,0xc0100000
c0104388:	29 c2                	sub    edx,eax
c010438a:	b8 00 60 21 c0       	mov    eax,0xc0216000
c010438f:	01 d0                	add    eax,edx
c0104391:	89 45 f0             	mov    DWORD PTR [ebp-0x10],eax
c0104394:	8b 45 f4             	mov    eax,DWORD PTR [ebp-0xc]
c0104397:	8b 50 04             	mov    edx,DWORD PTR [eax+0x4]
c010439a:	8b 45 f4             	mov    eax,DWORD PTR [ebp-0xc]
c010439d:	8b 40 0c             	mov    eax,DWORD PTR [eax+0xc]
c01043a0:	01 d0                	add    eax,edx
c01043a2:	89 45 e4             	mov    DWORD PTR [ebp-0x1c],eax
c01043a5:	eb 1f                	jmp    c01043c6 <init_pmm+0x9a>
c01043a7:	8b 45 f0             	mov    eax,DWORD PTR [ebp-0x10]
c01043aa:	89 04 24             	mov    DWORD PTR [esp],eax
c01043ad:	e8 6a 00 00 00       	call   c010441c <pmm_free_page>
c01043b2:	81 45 f0 00 10 00 00 	add    DWORD PTR [ebp-0x10],0x1000
c01043b9:	a1 00 ad 20 c0       	mov    eax,ds:0xc020ad00
c01043be:	83 c0 01             	add    eax,0x1
c01043c1:	a3 00 ad 20 c0       	mov    ds:0xc020ad00,eax
c01043c6:	8b 45 f0             	mov    eax,DWORD PTR [ebp-0x10]
c01043c9:	3b 45 e4             	cmp    eax,DWORD PTR [ebp-0x1c]
c01043cc:	73 09                	jae    c01043d7 <init_pmm+0xab>
c01043ce:	81 7d f0 00 00 00 20 	cmp    DWORD PTR [ebp-0x10],0x20000000
c01043d5:	76 d0                	jbe    c01043a7 <init_pmm+0x7b>
c01043d7:	83 45 f4 18          	add    DWORD PTR [ebp-0xc],0x18
c01043db:	8b 45 f4             	mov    eax,DWORD PTR [ebp-0xc]
c01043de:	3b 45 e8             	cmp    eax,DWORD PTR [ebp-0x18]
c01043e1:	72 82                	jb     c0104365 <init_pmm+0x39>
c01043e3:	c9                   	leave  
c01043e4:	c3                   	ret    

c01043e5 <pmm_alloc_page>:
c01043e5:	55                   	push   ebp
c01043e6:	89 e5                	mov    ebp,esp
c01043e8:	83 ec 28             	sub    esp,0x28
c01043eb:	a1 64 68 18 c0       	mov    eax,ds:0xc0186864
c01043f0:	85 c0                	test   eax,eax
c01043f2:	75 0c                	jne    c0104400 <pmm_alloc_page+0x1b>
c01043f4:	c7 04 24 02 54 10 c0 	mov    DWORD PTR [esp],0xc0105402
c01043fb:	e8 b6 e9 ff ff       	call   c0102db6 <panic>
c0104400:	a1 64 68 18 c0       	mov    eax,ds:0xc0186864
c0104405:	8b 14 85 60 68 10 c0 	mov    edx,DWORD PTR [eax*4-0x3fef97a0]
c010440c:	89 55 f4             	mov    DWORD PTR [ebp-0xc],edx
c010440f:	83 e8 01             	sub    eax,0x1
c0104412:	a3 64 68 18 c0       	mov    ds:0xc0186864,eax
c0104417:	8b 45 f4             	mov    eax,DWORD PTR [ebp-0xc]
c010441a:	c9                   	leave  
c010441b:	c3                   	ret    

c010441c <pmm_free_page>:
c010441c:	55                   	push   ebp
c010441d:	89 e5                	mov    ebp,esp
c010441f:	83 ec 18             	sub    esp,0x18
c0104422:	a1 64 68 18 c0       	mov    eax,ds:0xc0186864
c0104427:	3d 00 00 02 00       	cmp    eax,0x20000
c010442c:	75 0c                	jne    c010443a <pmm_free_page+0x1e>
c010442e:	c7 04 24 10 54 10 c0 	mov    DWORD PTR [esp],0xc0105410
c0104435:	e8 7c e9 ff ff       	call   c0102db6 <panic>
c010443a:	a1 64 68 18 c0       	mov    eax,ds:0xc0186864
c010443f:	83 c0 01             	add    eax,0x1
c0104442:	a3 64 68 18 c0       	mov    ds:0xc0186864,eax
c0104447:	a1 64 68 18 c0       	mov    eax,ds:0xc0186864
c010444c:	8b 55 08             	mov    edx,DWORD PTR [ebp+0x8]
c010444f:	89 14 85 60 68 10 c0 	mov    DWORD PTR [eax*4-0x3fef97a0],edx
c0104456:	c9                   	leave  
c0104457:	c3                   	ret    

c0104458 <init_vmm>:
c0104458:	55                   	push   ebp
c0104459:	89 e5                	mov    ebp,esp
c010445b:	83 ec 38             	sub    esp,0x38
c010445e:	c7 45 ec 00 03 00 00 	mov    DWORD PTR [ebp-0x14],0x300
c0104465:	8b 45 ec             	mov    eax,DWORD PTR [ebp-0x14]
c0104468:	89 45 f4             	mov    DWORD PTR [ebp-0xc],eax
c010446b:	c7 45 f0 00 00 00 00 	mov    DWORD PTR [ebp-0x10],0x0
c0104472:	eb 27                	jmp    c010449b <init_vmm+0x43>
c0104474:	8b 45 f0             	mov    eax,DWORD PTR [ebp-0x10]
c0104477:	c1 e0 0c             	shl    eax,0xc
c010447a:	05 00 70 18 c0       	add    eax,0xc0187000
c010447f:	05 00 00 00 40       	add    eax,0x40000000
c0104484:	89 c2                	mov    edx,eax
c0104486:	83 ca 03             	or     edx,0x3
c0104489:	8b 45 f4             	mov    eax,DWORD PTR [ebp-0xc]
c010448c:	89 14 85 00 b0 20 c0 	mov    DWORD PTR [eax*4-0x3fdf5000],edx
c0104493:	83 45 f4 01          	add    DWORD PTR [ebp-0xc],0x1
c0104497:	83 45 f0 01          	add    DWORD PTR [ebp-0x10],0x1
c010449b:	8b 45 ec             	mov    eax,DWORD PTR [ebp-0x14]
c010449e:	83 e8 80             	sub    eax,0xffffff80
c01044a1:	3b 45 f4             	cmp    eax,DWORD PTR [ebp-0xc]
c01044a4:	77 ce                	ja     c0104474 <init_vmm+0x1c>
c01044a6:	c7 45 e8 00 70 18 c0 	mov    DWORD PTR [ebp-0x18],0xc0187000
c01044ad:	c7 45 f4 01 00 00 00 	mov    DWORD PTR [ebp-0xc],0x1
c01044b4:	eb 1e                	jmp    c01044d4 <init_vmm+0x7c>
c01044b6:	8b 45 f4             	mov    eax,DWORD PTR [ebp-0xc]
c01044b9:	8d 14 85 00 00 00 00 	lea    edx,[eax*4+0x0]
c01044c0:	8b 45 e8             	mov    eax,DWORD PTR [ebp-0x18]
c01044c3:	01 d0                	add    eax,edx
c01044c5:	8b 55 f4             	mov    edx,DWORD PTR [ebp-0xc]
c01044c8:	c1 e2 0c             	shl    edx,0xc
c01044cb:	83 ca 03             	or     edx,0x3
c01044ce:	89 10                	mov    DWORD PTR [eax],edx
c01044d0:	83 45 f4 01          	add    DWORD PTR [ebp-0xc],0x1
c01044d4:	81 7d f4 ff ff 01 00 	cmp    DWORD PTR [ebp-0xc],0x1ffff
c01044db:	76 d9                	jbe    c01044b6 <init_vmm+0x5e>
c01044dd:	b8 00 b0 20 c0       	mov    eax,0xc020b000
c01044e2:	05 00 00 00 40       	add    eax,0x40000000
c01044e7:	89 45 e4             	mov    DWORD PTR [ebp-0x1c],eax
c01044ea:	c7 44 24 04 50 41 10 	mov    DWORD PTR [esp+0x4],0xc0104150
c01044f1:	c0 
c01044f2:	c7 04 24 0e 00 00 00 	mov    DWORD PTR [esp],0xe
c01044f9:	e8 d4 fb ff ff       	call   c01040d2 <register_interrupt_handler>
c01044fe:	8b 45 e4             	mov    eax,DWORD PTR [ebp-0x1c]
c0104501:	89 04 24             	mov    DWORD PTR [esp],eax
c0104504:	e8 02 00 00 00       	call   c010450b <switch_pgd>
c0104509:	c9                   	leave  
c010450a:	c3                   	ret    

c010450b <switch_pgd>:
c010450b:	55                   	push   ebp
c010450c:	89 e5                	mov    ebp,esp
c010450e:	8b 45 08             	mov    eax,DWORD PTR [ebp+0x8]
c0104511:	0f 22 d8             	mov    cr3,eax
c0104514:	5d                   	pop    ebp
c0104515:	c3                   	ret    

c0104516 <map>:
c0104516:	55                   	push   ebp
c0104517:	89 e5                	mov    ebp,esp
c0104519:	83 ec 28             	sub    esp,0x28
c010451c:	8b 45 0c             	mov    eax,DWORD PTR [ebp+0xc]
c010451f:	c1 e8 16             	shr    eax,0x16
c0104522:	89 45 f0             	mov    DWORD PTR [ebp-0x10],eax
c0104525:	8b 45 0c             	mov    eax,DWORD PTR [ebp+0xc]
c0104528:	c1 e8 0c             	shr    eax,0xc
c010452b:	25 ff 03 00 00       	and    eax,0x3ff
c0104530:	89 45 ec             	mov    DWORD PTR [ebp-0x14],eax
c0104533:	8b 45 f0             	mov    eax,DWORD PTR [ebp-0x10]
c0104536:	8d 14 85 00 00 00 00 	lea    edx,[eax*4+0x0]
c010453d:	8b 45 08             	mov    eax,DWORD PTR [ebp+0x8]
c0104540:	01 d0                	add    eax,edx
c0104542:	8b 00                	mov    eax,DWORD PTR [eax]
c0104544:	25 00 f0 ff ff       	and    eax,0xfffff000
c0104549:	89 45 f4             	mov    DWORD PTR [ebp-0xc],eax
c010454c:	83 7d f4 00          	cmp    DWORD PTR [ebp-0xc],0x0
c0104550:	75 3f                	jne    c0104591 <map+0x7b>
c0104552:	e8 8e fe ff ff       	call   c01043e5 <pmm_alloc_page>
c0104557:	89 45 f4             	mov    DWORD PTR [ebp-0xc],eax
c010455a:	8b 45 f0             	mov    eax,DWORD PTR [ebp-0x10]
c010455d:	8d 14 85 00 00 00 00 	lea    edx,[eax*4+0x0]
c0104564:	8b 45 08             	mov    eax,DWORD PTR [ebp+0x8]
c0104567:	01 d0                	add    eax,edx
c0104569:	8b 55 f4             	mov    edx,DWORD PTR [ebp-0xc]
c010456c:	83 ca 03             	or     edx,0x3
c010456f:	89 10                	mov    DWORD PTR [eax],edx
c0104571:	8b 45 f4             	mov    eax,DWORD PTR [ebp-0xc]
c0104574:	2d 00 00 00 40       	sub    eax,0x40000000
c0104579:	89 45 f4             	mov    DWORD PTR [ebp-0xc],eax
c010457c:	c7 44 24 04 00 10 00 	mov    DWORD PTR [esp+0x4],0x1000
c0104583:	00 
c0104584:	8b 45 f4             	mov    eax,DWORD PTR [ebp-0xc]
c0104587:	89 04 24             	mov    DWORD PTR [esp],eax
c010458a:	e8 5e 06 00 00       	call   c0104bed <bzero>
c010458f:	eb 0b                	jmp    c010459c <map+0x86>
c0104591:	8b 45 f4             	mov    eax,DWORD PTR [ebp-0xc]
c0104594:	2d 00 00 00 40       	sub    eax,0x40000000
c0104599:	89 45 f4             	mov    DWORD PTR [ebp-0xc],eax
c010459c:	8b 45 ec             	mov    eax,DWORD PTR [ebp-0x14]
c010459f:	8d 14 85 00 00 00 00 	lea    edx,[eax*4+0x0]
c01045a6:	8b 45 f4             	mov    eax,DWORD PTR [ebp-0xc]
c01045a9:	01 c2                	add    edx,eax
c01045ab:	8b 45 10             	mov    eax,DWORD PTR [ebp+0x10]
c01045ae:	25 00 f0 ff ff       	and    eax,0xfffff000
c01045b3:	0b 45 14             	or     eax,DWORD PTR [ebp+0x14]
c01045b6:	89 02                	mov    DWORD PTR [edx],eax
c01045b8:	8b 45 0c             	mov    eax,DWORD PTR [ebp+0xc]
c01045bb:	0f 01 38             	invlpg BYTE PTR [eax]
c01045be:	c9                   	leave  
c01045bf:	c3                   	ret    

c01045c0 <unmap>:
c01045c0:	55                   	push   ebp
c01045c1:	89 e5                	mov    ebp,esp
c01045c3:	83 ec 10             	sub    esp,0x10
c01045c6:	8b 45 0c             	mov    eax,DWORD PTR [ebp+0xc]
c01045c9:	c1 e8 16             	shr    eax,0x16
c01045cc:	89 45 fc             	mov    DWORD PTR [ebp-0x4],eax
c01045cf:	8b 45 0c             	mov    eax,DWORD PTR [ebp+0xc]
c01045d2:	c1 e8 0c             	shr    eax,0xc
c01045d5:	25 ff 03 00 00       	and    eax,0x3ff
c01045da:	89 45 f8             	mov    DWORD PTR [ebp-0x8],eax
c01045dd:	8b 45 fc             	mov    eax,DWORD PTR [ebp-0x4]
c01045e0:	8d 14 85 00 00 00 00 	lea    edx,[eax*4+0x0]
c01045e7:	8b 45 08             	mov    eax,DWORD PTR [ebp+0x8]
c01045ea:	01 d0                	add    eax,edx
c01045ec:	8b 00                	mov    eax,DWORD PTR [eax]
c01045ee:	25 00 f0 ff ff       	and    eax,0xfffff000
c01045f3:	89 45 f4             	mov    DWORD PTR [ebp-0xc],eax
c01045f6:	83 7d f4 00          	cmp    DWORD PTR [ebp-0xc],0x0
c01045fa:	74 28                	je     c0104624 <unmap+0x64>
c01045fc:	8b 45 f4             	mov    eax,DWORD PTR [ebp-0xc]
c01045ff:	2d 00 00 00 40       	sub    eax,0x40000000
c0104604:	89 45 f4             	mov    DWORD PTR [ebp-0xc],eax
c0104607:	8b 45 f8             	mov    eax,DWORD PTR [ebp-0x8]
c010460a:	8d 14 85 00 00 00 00 	lea    edx,[eax*4+0x0]
c0104611:	8b 45 f4             	mov    eax,DWORD PTR [ebp-0xc]
c0104614:	01 d0                	add    eax,edx
c0104616:	c7 00 00 00 00 00    	mov    DWORD PTR [eax],0x0
c010461c:	8b 45 0c             	mov    eax,DWORD PTR [ebp+0xc]
c010461f:	0f 01 38             	invlpg BYTE PTR [eax]
c0104622:	eb 01                	jmp    c0104625 <unmap+0x65>
c0104624:	90                   	nop
c0104625:	c9                   	leave  
c0104626:	c3                   	ret    

c0104627 <get_mapping>:
c0104627:	55                   	push   ebp
c0104628:	89 e5                	mov    ebp,esp
c010462a:	83 ec 10             	sub    esp,0x10
c010462d:	8b 45 0c             	mov    eax,DWORD PTR [ebp+0xc]
c0104630:	c1 e8 16             	shr    eax,0x16
